Archive member included to satisfy reference by file (symbol)

c:/program files/microchip/xc32/v4.00/bin/bin/../../lib/gcc/pic32c/8.3.1/../../../../pic32c/lib/thumb/v7e-m+fp/hard\libpic32c.a(data_init.o)
                              build/sam_e54_xpro/debug/_ext/68098787/startup_xc32.o (__pic32c_data_initialization)
c:/program files/microchip/xc32/v4.00/bin/bin/../../lib/gcc/pic32c/8.3.1/../../../../pic32c/lib/thumb/v7e-m+fp/hard\libg-musl.a(__libc_start_main.o)
                              build/sam_e54_xpro/debug/_ext/68098787/startup_xc32.o (__libc_init_array)
c:/program files/microchip/xc32/v4.00/bin/bin/../../lib/gcc/pic32c/8.3.1/../../../../pic32c/lib/thumb/v7e-m+fp/hard\libg-musl.a(libc.o)
                              c:/program files/microchip/xc32/v4.00/bin/bin/../../lib/gcc/pic32c/8.3.1/../../../../pic32c/lib/thumb/v7e-m+fp/hard\libg-musl.a(__libc_start_main.o) (__progname_full)
c:/program files/microchip/xc32/v4.00/bin/bin/../../lib/gcc/pic32c/8.3.1/../../../../pic32c/lib/thumb/v7e-m+fp/hard\libg-musl.a(stdin.o)
                              build/sam_e54_xpro/debug/_ext/68098787/initialization.o (_stdin)
c:/program files/microchip/xc32/v4.00/bin/bin/../../lib/gcc/pic32c/8.3.1/../../../../pic32c/lib/thumb/v7e-m+fp/hard\libg-musl.a(stdout.o)
                              build/sam_e54_xpro/debug/_ext/68098787/initialization.o (_stdout)
c:/program files/microchip/xc32/v4.00/bin/bin/../../lib/gcc/pic32c/8.3.1/../../../../pic32c/lib/thumb/v7e-m+fp/hard\libg-musl.a(printf.o)
                              build/sam_e54_xpro/debug/_ext/1360937237/app.o (printf)
c:/program files/microchip/xc32/v4.00/bin/bin/../../lib/gcc/pic32c/8.3.1/../../../../pic32c/lib/thumb/v7e-m+fp/hard\libg-musl.a(setbuf.o)
                              build/sam_e54_xpro/debug/_ext/68098787/initialization.o (setbuf)
c:/program files/microchip/xc32/v4.00/bin/bin/../../lib/gcc/pic32c/8.3.1/../../../../pic32c/lib/thumb/v7e-m+fp/hard\libg-musl.a(memcpy.o)
                              build/sam_e54_xpro/debug/_ext/1062319119/drv_memory.o (memcpy)
c:/program files/microchip/xc32/v4.00/bin/bin/../../lib/gcc/pic32c/8.3.1/../../../../pic32c/lib/thumb/v7e-m+fp/hard\libg-musl.a(memset.o)
                              build/sam_e54_xpro/debug/_ext/1062319119/drv_memory.o (memset)
c:/program files/microchip/xc32/v4.00/bin/bin/../../lib/gcc/pic32c/8.3.1/../../../../pic32c/lib/thumb/v7e-m+fp/hard\libg-musl.a(strlen.o)
                              build/sam_e54_xpro/debug/_ext/743848790/sys_fs.o (strlen)
c:/program files/microchip/xc32/v4.00/bin/bin/../../lib/gcc/pic32c/8.3.1/../../../../pic32c/lib/thumb/v7e-m+fp/hard\libg-musl.a(strcmp.o)
                              build/sam_e54_xpro/debug/_ext/743848790/sys_fs_media_manager.o (strcmp)
c:/program files/microchip/xc32/v4.00/bin/bin/../../lib/gcc/pic32c/8.3.1/../../../../pic32c/lib/thumb/v7e-m+fp/hard\libg-musl.a(strcpy.o)
                              build/sam_e54_xpro/debug/_ext/743848790/sys_fs.o (strcpy)
c:/program files/microchip/xc32/v4.00/bin/bin/../../lib/gcc/pic32c/8.3.1/../../../../pic32c/lib/thumb/v7e-m+fp/hard\libg-musl.a(strncmp.o)
                              build/sam_e54_xpro/debug/_ext/743848790/sys_fs.o (strncmp)
c:/program files/microchip/xc32/v4.00/bin/bin/../../lib/gcc/pic32c/8.3.1/../../../../pic32c/lib/thumb/v7e-m+fp/hard\libg-musl.a(__environ.o)
                              c:/program files/microchip/xc32/v4.00/bin/bin/../../lib/gcc/pic32c/8.3.1/../../../../pic32c/lib/thumb/v7e-m+fp/hard\libg-musl.a(__libc_start_main.o) (__environ)
c:/program files/microchip/xc32/v4.00/bin/bin/../../lib/gcc/pic32c/8.3.1/../../../../pic32c/lib/thumb/v7e-m+fp/hard\libg-musl.a(__io_init_needed.o)
                              c:/program files/microchip/xc32/v4.00/bin/bin/../../lib/gcc/pic32c/8.3.1/../../../../pic32c/lib/thumb/v7e-m+fp/hard\libg-musl.a(stdout.o) (__io_init_needed)
c:/program files/microchip/xc32/v4.00/bin/bin/../../lib/gcc/pic32c/8.3.1/../../../../pic32c/lib/thumb/v7e-m+fp/hard\libg-musl.a(__io_rw_needed.o)
                              c:/program files/microchip/xc32/v4.00/bin/bin/../../lib/gcc/pic32c/8.3.1/../../../../pic32c/lib/thumb/v7e-m+fp/hard\libg-musl.a(stdin.o) (__io_rw_needed)
c:/program files/microchip/xc32/v4.00/bin/bin/../../lib/gcc/pic32c/8.3.1/../../../../pic32c/lib/thumb/v7e-m+fp/hard\libg-musl.a(__stdio_read.o)
                              c:/program files/microchip/xc32/v4.00/bin/bin/../../lib/gcc/pic32c/8.3.1/../../../../pic32c/lib/thumb/v7e-m+fp/hard\libg-musl.a(stdin.o) (__stdio_read)
c:/program files/microchip/xc32/v4.00/bin/bin/../../lib/gcc/pic32c/8.3.1/../../../../pic32c/lib/thumb/v7e-m+fp/hard\libg-musl.a(__towrite_rw.o)
                              c:/program files/microchip/xc32/v4.00/bin/bin/../../lib/gcc/pic32c/8.3.1/../../../../pic32c/lib/thumb/v7e-m+fp/hard\libg-musl.a(__io_rw_needed.o) (__towrite_rw_needed)
c:/program files/microchip/xc32/v4.00/bin/bin/../../lib/gcc/pic32c/8.3.1/../../../../pic32c/lib/thumb/v7e-m+fp/hard\libg-musl.a(setvbuf.o)
                              c:/program files/microchip/xc32/v4.00/bin/bin/../../lib/gcc/pic32c/8.3.1/../../../../pic32c/lib/thumb/v7e-m+fp/hard\libg-musl.a(setbuf.o) (setvbuf)
c:/program files/microchip/xc32/v4.00/bin/bin/../../lib/gcc/pic32c/8.3.1/../../../../pic32c/lib/thumb/v7e-m+fp/hard\libg-musl.a(vfprintf.o)
                              c:/program files/microchip/xc32/v4.00/bin/bin/../../lib/gcc/pic32c/8.3.1/../../../../pic32c/lib/thumb/v7e-m+fp/hard\libg-musl.a(printf.o) (vfprintf)
c:/program files/microchip/xc32/v4.00/bin/bin/../../lib/gcc/pic32c/8.3.1/../../../../pic32c/lib/thumb/v7e-m+fp/hard\libg-musl.a(stpcpy.o)
                              c:/program files/microchip/xc32/v4.00/bin/bin/../../lib/gcc/pic32c/8.3.1/../../../../pic32c/lib/thumb/v7e-m+fp/hard\libg-musl.a(strcpy.o) (__stpcpy)
c:/program files/microchip/xc32/v4.00/bin/bin/../../lib/gcc/pic32c/8.3.1/../../../../pic32c/lib/thumb/v7e-m+fp/hard\libg-musl.a(readv.o)
                              c:/program files/microchip/xc32/v4.00/bin/bin/../../lib/gcc/pic32c/8.3.1/../../../../pic32c/lib/thumb/v7e-m+fp/hard\libg-musl.a(__stdio_read.o) (readv)
c:/program files/microchip/xc32/v4.00/bin/bin/../../lib/gcc/pic32c/8.3.1/../../../../pic32c/lib/thumb/v7e-m+fp/hard\libg-musl.a(malloc.o)
                              c:/program files/microchip/xc32/v4.00/bin/bin/../../lib/gcc/pic32c/8.3.1/../../../../pic32c/lib/thumb/v7e-m+fp/hard\libg-musl.a(setvbuf.o) (malloc)
c:/program files/microchip/xc32/v4.00/bin/bin/../../lib/gcc/pic32c/8.3.1/../../../../pic32c/lib/thumb/v7e-m+fp/hard\libg-musl.a(expand_heap.o)
                              c:/program files/microchip/xc32/v4.00/bin/bin/../../lib/gcc/pic32c/8.3.1/../../../../pic32c/lib/thumb/v7e-m+fp/hard\libg-musl.a(malloc.o) (__expand_heap)
c:/program files/microchip/xc32/v4.00/bin/bin/../../lib/gcc/pic32c/8.3.1/../../../../pic32c/lib/thumb/v7e-m+fp/hard\libg-musl.a(__fopen_rw.o)
                              c:/program files/microchip/xc32/v4.00/bin/bin/../../lib/gcc/pic32c/8.3.1/../../../../pic32c/lib/thumb/v7e-m+fp/hard\libg-musl.a(__io_rw_needed.o) (__fopen_rw_needed)
c:/program files/microchip/xc32/v4.00/bin/bin/../../lib/gcc/pic32c/8.3.1/../../../../pic32c/lib/thumb/v7e-m+fp/hard\libg-musl.a(__ftello_rw.o)
                              c:/program files/microchip/xc32/v4.00/bin/bin/../../lib/gcc/pic32c/8.3.1/../../../../pic32c/lib/thumb/v7e-m+fp/hard\libg-musl.a(__io_rw_needed.o) (__ftello_adj_rw_needed)
c:/program files/microchip/xc32/v4.00/bin/bin/../../lib/gcc/pic32c/8.3.1/../../../../pic32c/lib/thumb/v7e-m+fp/hard\libg-musl.a(__init_stdio.o)
                              c:/program files/microchip/xc32/v4.00/bin/bin/../../lib/gcc/pic32c/8.3.1/../../../../pic32c/lib/thumb/v7e-m+fp/hard\libg-musl.a(__io_init_needed.o) (__init_stdio_needed)
c:/program files/microchip/xc32/v4.00/bin/bin/../../lib/gcc/pic32c/8.3.1/../../../../pic32c/lib/thumb/v7e-m+fp/hard\libg-musl.a(__io_buf_needed.o)
                              c:/program files/microchip/xc32/v4.00/bin/bin/../../lib/gcc/pic32c/8.3.1/../../../../pic32c/lib/thumb/v7e-m+fp/hard\libg-musl.a(__io_rw_needed.o) (__io_buf_needed)
c:/program files/microchip/xc32/v4.00/bin/bin/../../lib/gcc/pic32c/8.3.1/../../../../pic32c/lib/thumb/v7e-m+fp/hard\libg-musl.a(__io_file_needed.o)
                              c:/program files/microchip/xc32/v4.00/bin/bin/../../lib/gcc/pic32c/8.3.1/../../../../pic32c/lib/thumb/v7e-m+fp/hard\libg-musl.a(__io_init_needed.o) (__io_file_needed)
c:/program files/microchip/xc32/v4.00/bin/bin/../../lib/gcc/pic32c/8.3.1/../../../../pic32c/lib/thumb/v7e-m+fp/hard\libg-musl.a(__io_fmt_needed.o)
                              c:/program files/microchip/xc32/v4.00/bin/bin/../../lib/gcc/pic32c/8.3.1/../../../../pic32c/lib/thumb/v7e-m+fp/hard\libg-musl.a(vfprintf.o) (__io_fmt_needed)
c:/program files/microchip/xc32/v4.00/bin/bin/../../lib/gcc/pic32c/8.3.1/../../../../pic32c/lib/thumb/v7e-m+fp/hard\libg-musl.a(__io_std_needed.o)
                              c:/program files/microchip/xc32/v4.00/bin/bin/../../lib/gcc/pic32c/8.3.1/../../../../pic32c/lib/thumb/v7e-m+fp/hard\libg-musl.a(__io_buf_needed.o) (__io_std_needed)
c:/program files/microchip/xc32/v4.00/bin/bin/../../lib/gcc/pic32c/8.3.1/../../../../pic32c/lib/thumb/v7e-m+fp/hard\libg-musl.a(__out.o)
                              c:/program files/microchip/xc32/v4.00/bin/bin/../../lib/gcc/pic32c/8.3.1/../../../../pic32c/lib/thumb/v7e-m+fp/hard\libg-musl.a(__fopen_rw.o) (__stdio_write_unbuffered)
c:/program files/microchip/xc32/v4.00/bin/bin/../../lib/gcc/pic32c/8.3.1/../../../../pic32c/lib/thumb/v7e-m+fp/hard\libg-musl.a(__printf_core.o)
                              c:/program files/microchip/xc32/v4.00/bin/bin/../../lib/gcc/pic32c/8.3.1/../../../../pic32c/lib/thumb/v7e-m+fp/hard\libg-musl.a(vfprintf.o) (__printf_core)
c:/program files/microchip/xc32/v4.00/bin/bin/../../lib/gcc/pic32c/8.3.1/../../../../pic32c/lib/thumb/v7e-m+fp/hard\libg-musl.a(__putc.o)
                              c:/program files/microchip/xc32/v4.00/bin/bin/../../lib/gcc/pic32c/8.3.1/../../../../pic32c/lib/thumb/v7e-m+fp/hard\libg-musl.a(__io_buf_needed.o) (__putc_needed)
c:/program files/microchip/xc32/v4.00/bin/bin/../../lib/gcc/pic32c/8.3.1/../../../../pic32c/lib/thumb/v7e-m+fp/hard\libg-musl.a(__stderr.o)
                              c:/program files/microchip/xc32/v4.00/bin/bin/../../lib/gcc/pic32c/8.3.1/../../../../pic32c/lib/thumb/v7e-m+fp/hard\libg-musl.a(__io_std_needed.o) (__init_stderr_needed)
c:/program files/microchip/xc32/v4.00/bin/bin/../../lib/gcc/pic32c/8.3.1/../../../../pic32c/lib/thumb/v7e-m+fp/hard\libg-musl.a(__stdio_close.o)
                              c:/program files/microchip/xc32/v4.00/bin/bin/../../lib/gcc/pic32c/8.3.1/../../../../pic32c/lib/thumb/v7e-m+fp/hard\libg-musl.a(__fopen_rw.o) (__stdio_close_rw)
c:/program files/microchip/xc32/v4.00/bin/bin/../../lib/gcc/pic32c/8.3.1/../../../../pic32c/lib/thumb/v7e-m+fp/hard\libg-musl.a(__stdio_exit.o)
                              c:/program files/microchip/xc32/v4.00/bin/bin/../../lib/gcc/pic32c/8.3.1/../../../../pic32c/lib/thumb/v7e-m+fp/hard\libg-musl.a(__io_buf_needed.o) (__stdio_exit_needed)
c:/program files/microchip/xc32/v4.00/bin/bin/../../lib/gcc/pic32c/8.3.1/../../../../pic32c/lib/thumb/v7e-m+fp/hard\libg-musl.a(__stdio_write.o)
                              c:/program files/microchip/xc32/v4.00/bin/bin/../../lib/gcc/pic32c/8.3.1/../../../../pic32c/lib/thumb/v7e-m+fp/hard\libg-musl.a(setvbuf.o) (__stdio_write_buffered)
c:/program files/microchip/xc32/v4.00/bin/bin/../../lib/gcc/pic32c/8.3.1/../../../../pic32c/lib/thumb/v7e-m+fp/hard\libg-musl.a(__stdout.o)
                              c:/program files/microchip/xc32/v4.00/bin/bin/../../lib/gcc/pic32c/8.3.1/../../../../pic32c/lib/thumb/v7e-m+fp/hard\libg-musl.a(__io_std_needed.o) (__init_stdout_needed)
c:/program files/microchip/xc32/v4.00/bin/bin/../../lib/gcc/pic32c/8.3.1/../../../../pic32c/lib/thumb/v7e-m+fp/hard\libg-musl.a(__towrite.o)
                              c:/program files/microchip/xc32/v4.00/bin/bin/../../lib/gcc/pic32c/8.3.1/../../../../pic32c/lib/thumb/v7e-m+fp/hard\libg-musl.a(__stdio_write.o) (__towrite)
c:/program files/microchip/xc32/v4.00/bin/bin/../../lib/gcc/pic32c/8.3.1/../../../../pic32c/lib/thumb/v7e-m+fp/hard\libg-musl.a(putc.o)
                              c:/program files/microchip/xc32/v4.00/bin/bin/../../lib/gcc/pic32c/8.3.1/../../../../pic32c/lib/thumb/v7e-m+fp/hard\libg-musl.a(__putc.o) (__putc_unbuffered)
c:/program files/microchip/xc32/v4.00/bin/bin/../../lib/gcc/pic32c/8.3.1/../../../../pic32c/lib/thumb/v7e-m+fp/hard\libg-musl.a(atoi.o)
                              c:/program files/microchip/xc32/v4.00/bin/bin/../../lib/gcc/pic32c/8.3.1/../../../../pic32c/lib/thumb/v7e-m+fp/hard\libg-musl.a(__printf_core.o) (atoi)
c:/program files/microchip/xc32/v4.00/bin/bin/../../lib/gcc/pic32c/8.3.1/../../../../pic32c/lib/thumb/v7e-m+fp/hard\libg-musl.a(read.o)
                              c:/program files/microchip/xc32/v4.00/bin/bin/../../lib/gcc/pic32c/8.3.1/../../../../pic32c/lib/thumb/v7e-m+fp/hard\libg-musl.a(readv.o) (read)
c:/program files/microchip/xc32/v4.00/bin/bin/../../lib/gcc/pic32c/8.3.1/../../../../pic32c/lib/thumb/v7e-m+fp/hard\libg-musl.a(writev.o)
                              c:/program files/microchip/xc32/v4.00/bin/bin/../../lib/gcc/pic32c/8.3.1/../../../../pic32c/lib/thumb/v7e-m+fp/hard\libg-musl.a(__stdio_write.o) (writev)
c:/program files/microchip/xc32/v4.00/bin/bin/../../lib/gcc/pic32c/8.3.1/../../../../pic32c/lib/thumb/v7e-m+fp/hard\libg-musl.a(tolower.o)
                              c:/program files/microchip/xc32/v4.00/bin/bin/../../lib/gcc/pic32c/8.3.1/../../../../pic32c/lib/thumb/v7e-m+fp/hard\libg-musl.a(__printf_core.o) (tolower)
c:/program files/microchip/xc32/v4.00/bin/bin/../../lib/gcc/pic32c/8.3.1/../../../../pic32c/lib/thumb/v7e-m+fp/hard\libg-musl.a(__errno_location.o)
                              c:/program files/microchip/xc32/v4.00/bin/bin/../../lib/gcc/pic32c/8.3.1/../../../../pic32c/lib/thumb/v7e-m+fp/hard\libg-musl.a(malloc.o) (__errno_val)
c:/program files/microchip/xc32/v4.00/bin/bin/../../lib/gcc/pic32c/8.3.1/../../../../pic32c/lib/thumb/v7e-m+fp/hard\libg-musl.a(syscall_ret.o)
                              c:/program files/microchip/xc32/v4.00/bin/bin/../../lib/gcc/pic32c/8.3.1/../../../../pic32c/lib/thumb/v7e-m+fp/hard\libg-musl.a(read.o) (__syscall_ret)
c:/program files/microchip/xc32/v4.00/bin/bin/../../lib/gcc/pic32c/8.3.1/../../../../pic32c/lib/thumb/v7e-m+fp/hard\libg-musl.a(__overflow.o)
                              c:/program files/microchip/xc32/v4.00/bin/bin/../../lib/gcc/pic32c/8.3.1/../../../../pic32c/lib/thumb/v7e-m+fp/hard\libg-musl.a(__putc.o) (__overflow)
c:/program files/microchip/xc32/v4.00/bin/bin/../../lib/gcc/pic32c/8.3.1/../../../../pic32c/lib/thumb/v7e-m+fp/hard\libg-musl.a(__fclose.o)
                              c:/program files/microchip/xc32/v4.00/bin/bin/../../lib/gcc/pic32c/8.3.1/../../../../pic32c/lib/thumb/v7e-m+fp/hard\libg-musl.a(__io_buf_needed.o) (__fclose_needed)
c:/program files/microchip/xc32/v4.00/bin/bin/../../lib/gcc/pic32c/8.3.1/../../../../pic32c/lib/thumb/v7e-m+fp/hard\libg-musl.a(__fmt_a.o)
                              c:/program files/microchip/xc32/v4.00/bin/bin/../../lib/gcc/pic32c/8.3.1/../../../../pic32c/lib/thumb/v7e-m+fp/hard\libg-musl.a(__io_fmt_needed.o) (__fmt_a_needed)
c:/program files/microchip/xc32/v4.00/bin/bin/../../lib/gcc/pic32c/8.3.1/../../../../pic32c/lib/thumb/v7e-m+fp/hard\libg-musl.a(__fmt_d.o)
                              c:/program files/microchip/xc32/v4.00/bin/bin/../../lib/gcc/pic32c/8.3.1/../../../../pic32c/lib/thumb/v7e-m+fp/hard\libg-musl.a(__io_fmt_needed.o) (__fmt_d_needed)
c:/program files/microchip/xc32/v4.00/bin/bin/../../lib/gcc/pic32c/8.3.1/../../../../pic32c/lib/thumb/v7e-m+fp/hard\libg-musl.a(__fmt_fp.o)
                              c:/program files/microchip/xc32/v4.00/bin/bin/../../lib/gcc/pic32c/8.3.1/../../../../pic32c/lib/thumb/v7e-m+fp/hard\libg-musl.a(__io_fmt_needed.o) (__fmt_f_needed)
c:/program files/microchip/xc32/v4.00/bin/bin/../../lib/gcc/pic32c/8.3.1/../../../../pic32c/lib/thumb/v7e-m+fp/hard\libg-musl.a(__fmt_o.o)
                              c:/program files/microchip/xc32/v4.00/bin/bin/../../lib/gcc/pic32c/8.3.1/../../../../pic32c/lib/thumb/v7e-m+fp/hard\libg-musl.a(__io_fmt_needed.o) (__fmt_o_needed)
c:/program files/microchip/xc32/v4.00/bin/bin/../../lib/gcc/pic32c/8.3.1/../../../../pic32c/lib/thumb/v7e-m+fp/hard\libg-musl.a(__fmt_s.o)
                              c:/program files/microchip/xc32/v4.00/bin/bin/../../lib/gcc/pic32c/8.3.1/../../../../pic32c/lib/thumb/v7e-m+fp/hard\libg-musl.a(__io_fmt_needed.o) (__fmt_s_needed)
c:/program files/microchip/xc32/v4.00/bin/bin/../../lib/gcc/pic32c/8.3.1/../../../../pic32c/lib/thumb/v7e-m+fp/hard\libg-musl.a(__fmt_u.o)
                              c:/program files/microchip/xc32/v4.00/bin/bin/../../lib/gcc/pic32c/8.3.1/../../../../pic32c/lib/thumb/v7e-m+fp/hard\libg-musl.a(__fmt_d.o) (__cvt_u)
c:/program files/microchip/xc32/v4.00/bin/bin/../../lib/gcc/pic32c/8.3.1/../../../../pic32c/lib/thumb/v7e-m+fp/hard\libg-musl.a(__fmt_x.o)
                              c:/program files/microchip/xc32/v4.00/bin/bin/../../lib/gcc/pic32c/8.3.1/../../../../pic32c/lib/thumb/v7e-m+fp/hard\libg-musl.a(__io_fmt_needed.o) (__fmt_x_needed)
c:/program files/microchip/xc32/v4.00/bin/bin/../../lib/gcc/pic32c/8.3.1/../../../../pic32c/lib/thumb/v7e-m+fp/hard\libg-musl.a(__fopen.o)
                              c:/program files/microchip/xc32/v4.00/bin/bin/../../lib/gcc/pic32c/8.3.1/../../../../pic32c/lib/thumb/v7e-m+fp/hard\libg-musl.a(__io_std_needed.o) (__fopen_needed)
c:/program files/microchip/xc32/v4.00/bin/bin/../../lib/gcc/pic32c/8.3.1/../../../../pic32c/lib/thumb/v7e-m+fp/hard\libg-musl.a(__fseeko.o)
                              c:/program files/microchip/xc32/v4.00/bin/bin/../../lib/gcc/pic32c/8.3.1/../../../../pic32c/lib/thumb/v7e-m+fp/hard\libg-musl.a(__io_buf_needed.o) (__fseeko_needed)
c:/program files/microchip/xc32/v4.00/bin/bin/../../lib/gcc/pic32c/8.3.1/../../../../pic32c/lib/thumb/v7e-m+fp/hard\libg-musl.a(__ftello.o)
                              c:/program files/microchip/xc32/v4.00/bin/bin/../../lib/gcc/pic32c/8.3.1/../../../../pic32c/lib/thumb/v7e-m+fp/hard\libg-musl.a(__io_buf_needed.o) (__ftello_adj_needed)
c:/program files/microchip/xc32/v4.00/bin/bin/../../lib/gcc/pic32c/8.3.1/../../../../pic32c/lib/thumb/v7e-m+fp/hard\libg-musl.a(__fwrite.o)
                              c:/program files/microchip/xc32/v4.00/bin/bin/../../lib/gcc/pic32c/8.3.1/../../../../pic32c/lib/thumb/v7e-m+fp/hard\libg-musl.a(__io_std_needed.o) (__fwrite_needed)
c:/program files/microchip/xc32/v4.00/bin/bin/../../lib/gcc/pic32c/8.3.1/../../../../pic32c/lib/thumb/v7e-m+fp/hard\libg-musl.a(__pop_float.o)
                              c:/program files/microchip/xc32/v4.00/bin/bin/../../lib/gcc/pic32c/8.3.1/../../../../pic32c/lib/thumb/v7e-m+fp/hard\libg-musl.a(__printf_core.o) (__pop_float)
c:/program files/microchip/xc32/v4.00/bin/bin/../../lib/gcc/pic32c/8.3.1/../../../../pic32c/lib/thumb/v7e-m+fp/hard\libg-musl.a(__pop_int.o)
                              c:/program files/microchip/xc32/v4.00/bin/bin/../../lib/gcc/pic32c/8.3.1/../../../../pic32c/lib/thumb/v7e-m+fp/hard\libg-musl.a(__printf_core.o) (__pop_int)
c:/program files/microchip/xc32/v4.00/bin/bin/../../lib/gcc/pic32c/8.3.1/../../../../pic32c/lib/thumb/v7e-m+fp/hard\libg-musl.a(__pop_ptr.o)
                              c:/program files/microchip/xc32/v4.00/bin/bin/../../lib/gcc/pic32c/8.3.1/../../../../pic32c/lib/thumb/v7e-m+fp/hard\libg-musl.a(__printf_core.o) (__pop_ptr)
c:/program files/microchip/xc32/v4.00/bin/bin/../../lib/gcc/pic32c/8.3.1/../../../../pic32c/lib/thumb/v7e-m+fp/hard\libg-musl.a(toupper.o)
                              c:/program files/microchip/xc32/v4.00/bin/bin/../../lib/gcc/pic32c/8.3.1/../../../../pic32c/lib/thumb/v7e-m+fp/hard\libg-musl.a(__fmt_a.o) (toupper)
c:/program files/microchip/xc32/v4.00/bin/bin/../../lib/gcc/pic32c/8.3.1/../../../../pic32c/lib/thumb/v7e-m+fp/hard\libm-emfloat.a(lib_a-_FLOOR.o)
                              c:/program files/microchip/xc32/v4.00/bin/bin/../../lib/gcc/pic32c/8.3.1/../../../../pic32c/lib/thumb/v7e-m+fp/hard\libg-musl.a(__fmt_a.o) (floor)
c:/program files/microchip/xc32/v4.00/bin/bin/../../lib/gcc/pic32c/8.3.1/../../../../pic32c/lib/thumb/v7e-m+fp/hard\libm-emfloat.a(lib_a-_FMA.o)
                              c:/program files/microchip/xc32/v4.00/bin/bin/../../lib/gcc/pic32c/8.3.1/../../../../pic32c/lib/thumb/v7e-m+fp/hard\libg-musl.a(__fmt_fp.o) (fma)
c:/program files/microchip/xc32/v4.00/bin/bin/../../lib/gcc/pic32c/8.3.1/../../../../pic32c/lib/thumb/v7e-m+fp/hard\libm-emfloat.a(floatasmops_arm.o)
                              c:/program files/microchip/xc32/v4.00/bin/bin/../../lib/gcc/pic32c/8.3.1/../../../../pic32c/lib/thumb/v7e-m+fp/hard\libg-musl.a(__fmt_a.o) (__aeabi_dadd)
c:/program files/microchip/xc32/v4.00/bin/bin/../../lib/gcc/pic32c/8.3.1/../../../../pic32c/lib/thumb/v7e-m+fp/hard\libm-emfloat.a(lib_a-_ILOGB.o)
                              c:/program files/microchip/xc32/v4.00/bin/bin/../../lib/gcc/pic32c/8.3.1/../../../../pic32c/lib/thumb/v7e-m+fp/hard\libm-emfloat.a(lib_a-_FLOOR.o) (ilogb)
c:/program files/microchip/xc32/v4.00/bin/bin/../../lib/gcc/pic32c/8.3.1/../../../../pic32c/lib/thumb/v7e-m+fp/hard\libm-emfloat.a(lib_a-_LDEXP.o)
                              c:/program files/microchip/xc32/v4.00/bin/bin/../../lib/gcc/pic32c/8.3.1/../../../../pic32c/lib/thumb/v7e-m+fp/hard\libm-emfloat.a(lib_a-_FLOOR.o) (ldexp)
c:/program files/microchip/xc32/v4.00/bin/bin/../../lib/gcc/pic32c/8.3.1/thumb/v7e-m+fp/hard\libgcc.a(_aeabi_uldivmod.o)
                              build/sam_e54_xpro/debug/_ext/2060180706/plib_sercom2_usart.o (__aeabi_uldivmod)
c:/program files/microchip/xc32/v4.00/bin/bin/../../lib/gcc/pic32c/8.3.1/thumb/v7e-m+fp/hard\libgcc.a(_udivmoddi4.o)
                              c:/program files/microchip/xc32/v4.00/bin/bin/../../lib/gcc/pic32c/8.3.1/thumb/v7e-m+fp/hard\libgcc.a(_aeabi_uldivmod.o) (__udivmoddi4)
c:/program files/microchip/xc32/v4.00/bin/bin/../../lib/gcc/pic32c/8.3.1/thumb/v7e-m+fp/hard\libgcc.a(_dvmd_tls.o)
                              c:/program files/microchip/xc32/v4.00/bin/bin/../../lib/gcc/pic32c/8.3.1/thumb/v7e-m+fp/hard\libgcc.a(_aeabi_uldivmod.o) (__aeabi_ldiv0)
c:/program files/microchip/xc32/v4.00/bin/bin/../../lib/gcc/pic32c/8.3.1/../../../../pic32c/lib/thumb/v7e-m+fp/hard\libpic32c.a(close.o)
                              c:/program files/microchip/xc32/v4.00/bin/bin/../../lib/gcc/pic32c/8.3.1/../../../../pic32c/lib/thumb/v7e-m+fp/hard\libg-musl.a(__stdio_close.o) (close)
c:/program files/microchip/xc32/v4.00/bin/bin/../../lib/gcc/pic32c/8.3.1/../../../../pic32c/lib/thumb/v7e-m+fp/hard\libpic32c.a(lseek.o)
                              c:/program files/microchip/xc32/v4.00/bin/bin/../../lib/gcc/pic32c/8.3.1/../../../../pic32c/lib/thumb/v7e-m+fp/hard\libg-musl.a(__stdio_close.o) (lseek)
c:/program files/microchip/xc32/v4.00/bin/bin/../../lib/gcc/pic32c/8.3.1/../../../../pic32c/lib/thumb/v7e-m+fp/hard\libpic32c.a(sbrk.o)
                              c:/program files/microchip/xc32/v4.00/bin/bin/../../lib/gcc/pic32c/8.3.1/../../../../pic32c/lib/thumb/v7e-m+fp/hard\libg-musl.a(expand_heap.o) (_sbrk)
c:/program files/microchip/xc32/v4.00/bin/bin/../../lib/gcc/pic32c/8.3.1/../../../../pic32c/lib/thumb/v7e-m+fp/hard\libpic32c.a(write.o)
                              c:/program files/microchip/xc32/v4.00/bin/bin/../../lib/gcc/pic32c/8.3.1/../../../../pic32c/lib/thumb/v7e-m+fp/hard\libg-musl.a(__out.o) (write)

Microchip PIC32 Memory-Usage Report

ROM Program-Memory Usage
section                    address  length [bytes]      (dec)  Description
-------                 ----------  -------------------------  -----------
.vectors                         0          0x264         612   
.text                        0x264           0x20          32  App's exec code 
.ARM.exidx                   0x284            0x8           8   
.FAT_IMAGE                 0x80000        0x10000       65536   
.text.f_mkfs               0x90000          0x808        2056   
.text.__fmt_a              0x90808          0x498        1176   
.text.__fmt_fp             0x90ca0          0x488        1160   
.text.SYS_FS_MEDIA_MANA    0x91128          0x3f8        1016   
.text.follow_path          0x91520          0x3ac         940   
.text.mount_volume         0x918cc          0x398         920   
.dinit                     0x91c64          0x350         848   
.text.f_printf             0x91fb4          0x320         800   
.text.__printf_core        0x922d4          0x2f4         756   
.text                      0x925c8          0x2d0         720  App's exec code 
.text.dir_register         0x92898          0x2b8         696   
.text.f_open               0x92b50          0x244         580   
.text.__aeabi_dadd         0x92d94          0x240         576   
.rodata.cvt1.8309          0x92fd4          0x1f4         500   
.text.dir_find             0x931c8          0x1d8         472   
.rodata                    0x933a0          0x1d4         468  Read-only const 
.text.f_write              0x93574          0x1c6         454   
.text.DRV_NVMCTRL_Open     0x9373a            0x2           2   
.text.__aeabi_ddiv         0x9373c          0x1c4         452   
.text.malloc               0x93900          0x1b0         432   
.text.DRV_MEMORY_Open      0x93ab0          0x1a4         420   
.text.f_read               0x93c54          0x198         408   
.text.SYS_FS_Mount         0x93dec          0x194         404   
.text.f_lseek              0x93f80          0x192         402   
.text.DRV_NVMCTRL_Close    0x94112            0x2           2   
.text.create_partition     0x94114          0x188         392   
.text.SYS_FS_MEDIA_MANA    0x9429c          0x188         392   
.text.f_setlabel           0x94424          0x17c         380   
.text.get_fileinfo         0x945a0          0x164         356   
.text.DRV_MEMORY_SetupX    0x94704          0x144         324   
.text.dir_read             0x94848          0x138         312   
.text.f_getcwd             0x94980          0x138         312   
.text.__aeabi_dmul         0x94ab8          0x130         304   
.text.put_fat              0x94be8          0x12c         300   
.text.f_rename             0x94d14          0x126         294   
.text.__fmt_x              0x94e3a          0x124         292   
.text.create_chain         0x94f5e          0x11e         286   
.text.DRV_MEMORY_Tasks     0x9507c          0x118         280   
.text.APP_Tasks            0x95194          0x118         280   
.text.f_mkdir              0x952ac          0x116         278   
.text.EVSYS_Initialize     0x953c2            0x2           2   
.text.SYS_FS_FileOpen      0x953c4          0x110         272   
.rodata.uc437              0x954d4          0x100         256   
.text.free                 0x955d4           0xf8         248   
.text.check_fs             0x956cc           0xf0         240   
.text.DRV_MEMORY_Handle    0x957bc           0xee         238   
.text.Dummy_App_Func       0x958aa            0x2           2   
.text.CLOCK_Initialize     0x958ac           0xd8         216   
.text.f_getfree            0x95984           0xd8         216   
.text.get_fat              0x95a5c           0xd0         208   
.text.f_unlink             0x95b2c           0xcc         204   
.text.floor                0x95bf8           0xcc         204   
.text.dir_next             0x95cc4           0xc8         200   
.text.SYS_FS_GetDisk       0x95d8c           0xc4         196   
.text.f_truncate           0x95e50           0xc2         194   
.text.__dummy              0x95f12            0x2           2   
.rodata.cvt2.8310          0x95f14           0xbc         188   
.text.ff_wtoupper          0x95fd0           0xb4         180   
.text.DRV_MEMORY_Initia    0x96084           0xb0         176   
.text.dir_sdi              0x96134           0xb0         176   
.text.__fmt_d              0x961e4           0xa8         168   
.text.f_getlabel           0x9628c           0xa2         162   
.text.__pop_int            0x9632e           0xa0         160   
.text.f_sync               0x963ce           0x9c         156   
.text.__dummy              0x9646a            0x2           2   
.text.FATFS_unmount        0x9646c           0x9c         156   
.text.Reset_Handler        0x96508           0x98         152   
.text.DRV_MEMORY_Close     0x965a0           0x94         148   
.text.remove_chain         0x96634           0x94         148   
.text.f_opendir            0x966c8           0x92         146   
.text.__dummy              0x9675a            0x2           2   
.text.sync_fs              0x9675c           0x8c         140   
.text.SYS_FS_FileStat      0x967e8           0x8c         140   
.text.__write_buffered     0x96874           0x8a         138   
.rodata.FatFsFunctions     0x96900           0x88         136   
.text.__pic32c_data_ini    0x96988           0x88         136   
.rodata.ExCvt              0x96a10           0x80         128   
.text.__pad                0x96a90           0x7e         126   
.text.FATFS_mount          0x96b10           0x7c         124   
.text.__pop_ptr            0x96b8c           0x7c         124   
.text.SYS_FS_FileWrite     0x96c08           0x78         120   
.text.__cvt_u              0x96c80           0x78         120   
.text.__stdio_write_buf    0x96cf8           0x76         118   
.text.inc_lock             0x96d70           0x74         116   
.text.__fmt_o              0x96de4           0x72         114   
.text.DRV_MEMORY_Driver    0x96e58           0x70         112   
.text.SYS_FS_FileClose     0x96ec8           0x70         112   
.text.DRV_MEMORY_Handle    0x96f38           0x6c         108   
.text.DRV_MEMORY_Comman    0x96fa4           0x64         100   
.text.f_mount              0x97008           0x64         100   
.text.SYS_Initialize       0x9706c           0x64         100   
.text.__stdio_close_rw     0x970d0           0x64         100   
.text.DRV_MEMORY_Handle    0x97134           0x62          98   
.text.f_chdir              0x97196           0x60          96   
.text.__stdio_read         0x971f6           0x60          96   
.text.f_chmod              0x97256           0x5e          94   
.text.chk_lock             0x972b4           0x5c          92   
.text.get_ldnumber         0x97310           0x5c          92   
.text.dir_clear            0x9736c           0x5c          92   
.text.dir_remove           0x973c8           0x5c          92   
.text.f_utime              0x97424           0x5c          92   
.text.SYS_FS_Initialize    0x97480           0x5c          92   
.text.SYS_FS_MEDIA_MANA    0x974dc           0x5c          92   
.text.FATFS_open           0x97538           0x5c          92   
.text.__libc_start_init    0x97594           0x5c          92   
.rodata                    0x975f0           0x5c          92  Read-only const 
.text.f_gets               0x9764c           0x5a          90   
.text.unbin                0x976a8           0x58          88   
.text.__fmt_s              0x97700           0x58          88   
.text.__fmt_u              0x97758           0x56          86   
.text.dir_alloc            0x977ae           0x54          84   
.rodata                    0x97804           0x54          84  Read-only const 
.text.SYS_FS_MEDIA_MANA    0x97858           0x54          84   
.text.f_readdir            0x978ac           0x4e          78   
.text.setvbuf              0x978fc           0x4c          76   
.text.__aeabi_d2iz         0x97948           0x4c          76   
.text.sync_window          0x97994           0x48          72   
.text.ff_uni2oem           0x979dc           0x48          72   
.text.SERCOM2_USART_Wri    0x97a24           0x48          72   
.text.validate             0x97a6c           0x46          70   
.text.atoi                 0x97ab2           0x46          70   
.text.f_stat               0x97af8           0x44          68   
.text                      0x97b3c           0x40          64  App's exec code 
.text.DRV_MEMORY_Handle    0x97b7c           0x40          64   
.text.NVMCTRL_PageWrite    0x97bbc           0x40          64   
.text.disk_checkCommand    0x97bfc           0x40          64   
.text.SYS_FS_MEDIA_MANA    0x97c3c           0x40          64   
.text.adjust_size          0x97c7c           0x40          64   
.text.write                0x97cbc           0x40          64   
.text.putc_bfd             0x97cfc           0x3e          62   
.text.FATFS_getclusters    0x97d3a           0x3e          62   
.text.move_window          0x97d78           0x3c          60   
.text.putc_flush           0x97db4           0x3a          58   
.text.disk_ioctl           0x97dee           0x3a          58   
.text.__out                0x97e28           0x3a          58   
.text.MPU_Initialize       0x97e64           0x38          56   
.text.PORT_Initialize      0x97e9c           0x38          56   
.text.bin_index            0x97ed4           0x38          56   
.text.__fmt_state          0x97f0c           0x38          56   
.text.__aeabi_dcmpgt       0x97f44           0x38          56   
.text.__aeabi_dcmplt       0x97f7c           0x38          56   
.text.dec_lock             0x97fb4           0x34          52   
.text.f_close              0x97fe8           0x34          52   
.text.f_fdisk              0x9801c           0x34          52   
.text.SERCOM2_USART_Ini    0x98050           0x34          52   
.text.__aeabi_dcmpeq       0x98084           0x34          52   
.rodata.memoryMediaFunc    0x980b8           0x30          48   
.text.f_puts               0x980e8           0x30          48   
.text.disk_write           0x98118           0x30          48   
.text.SYS_FS_MEDIA_MANA    0x98148           0x30          48   
.text.SYS_FS_MEDIA_MANA    0x98178           0x30          48   
.text.alloc_rev            0x981a8           0x30          48   
.text                      0x981d8           0x30          48  App's exec code 
.text.trim                 0x98208           0x2e          46   
.text.ff_oem2uni           0x98238           0x2c          44   
.text.disk_read            0x98264           0x2c          44   
.text.FATFS_opendir        0x98290           0x2c          44   
.text.__readv              0x982bc           0x2c          44   
.text.alloc_fwd            0x982e8           0x2c          44   
.text.__writev             0x98314           0x2c          44   
.text.fma                  0x98340           0x2c          44   
.text._sbrk                0x9836c           0x2c          44   
.text.DRV_NVMCTRL_Geome    0x98398           0x2a          42   
.text.f_closedir           0x983c2           0x2a          42   
.text.__pop_float          0x983ec           0x2a          42   
.text.tchar2uni            0x98416           0x28          40   
.text.FATFS_mkfs           0x9843e           0x28          40   
.rodata.drvMemory0InitD    0x98468           0x28          40   
.text.__towrite_rw         0x98490           0x28          40   
.text.f_putc               0x984b8           0x26          38   
.text.get_fattime          0x984de           0x26          38   
.text.NVIC_Initialize      0x98504           0x24          36   
.text.f_chdrive            0x98528           0x24          36   
.rodata.drvMemory0Devic    0x9854c           0x24          36   
.text.printf               0x98570           0x24          36   
.text.strncmp              0x98594           0x24          36   
.text.SYS_FS_MEDIA_MANA    0x985b8           0x22          34   
.text.FATFS_chdrive        0x985da           0x22          34   
.text.DRV_MEMORY_Geomet    0x985fc           0x20          32   
.text.DRV_MEMORY_Addres    0x9861c           0x20          32   
.text.ld_clust             0x9863c           0x20          32   
.text.diskEventHandler     0x9865c           0x20          32   
.text.SYS_FS_MEDIA_MANA    0x9867c           0x20          32   
.rodata                    0x9869c           0x20          32  Read-only const 
.text.lock_bin             0x986bc           0x20          32   
.text.sum_sfn              0x986dc           0x1e          30   
.text.FATFS_close          0x986fa           0x1e          30   
.text.FATFS_closedir       0x98718           0x1e          30   
.text.DRV_MEMORY_AsyncE    0x98736           0x1c          28   
.text.NVMCTRL_BlockEras    0x98754           0x1c          28   
.text._mon_putc            0x98770           0x1c          28   
.text.SYS_FS_MEDIA_MANA    0x9878c           0x1c          28   
.text.APP_Initialize       0x987a8           0x1c          28   
.text.vfprintf             0x987c4           0x1c          28   
.rodata                    0x987e0           0x1c          28  Read-only const 
.text.DRV_MEMORY_AsyncR    0x987fc           0x1a          26   
.text.DRV_MEMORY_AsyncE    0x98816           0x1a          26   
.text.st_clust             0x98830           0x1a          26   
.text.FATFS_readdir        0x9884a           0x1a          26   
.text._SYS_FS_MEDIA_MAN    0x98864           0x18          24   
.text.FATFS_stat           0x9887c           0x18          24   
.text.SYS_Tasks            0x98894           0x18          24   
.text.strcmp               0x988ac           0x18          24   
.text.__towrite            0x988c4           0x18          24   
.text.__syscall_ret        0x988dc           0x18          24   
.text.__fwrite             0x988f4           0x18          24   
.text.ld_dword             0x9890c           0x16          22   
.text.clst2sect            0x98922           0x16          22   
.text.memcpy               0x98938           0x16          22   
.text.__expand_heap        0x9894e           0x16          22   
.text.DRV_MEMORY_Regist    0x98964           0x14          20   
.text.NVMCTRL_IsBusy       0x98978           0x14          20   
.text.mem_cpy              0x9898c           0x14          20   
.rodata.badchr.9015        0x989a0           0x14          20   
.text.__init_stdout        0x989b4           0x14          20   
.text.DRV_MEMORY_Transf    0x989c8           0x12          18   
.text.stpcpy               0x989da           0x12          18   
.text.BSP_Initialize       0x989ec           0x10          16   
.rodata.gMemoryXferFunc    0x989fc           0x10          16   
.text.NVMCTRL_Initializ    0x98a0c           0x10          16   
.text.NVMCTRL_Read         0x98a1c           0x10          16   
.text.st_dword             0x98a2c           0x10          16   
.rodata.LfnOfs             0x98a3c           0x10          16   
.rodata.cst.9052           0x98a4c           0x10          16   
.rodata.cst32.9053         0x98a5c           0x10          16   
.rodata.defopt.9054        0x98a6c           0x10          16   
.text.disk_initialize      0x98a7c           0x10          16   
.rodata.writeData          0x98a8c           0x10          16   
.text.setbuf               0x98a9c           0x10          16   
.text.memset               0x98aac           0x10          16   
.text.strlen               0x98abc           0x10          16   
.text.__init_stdio         0x98acc           0x10          16   
.rodata                    0x98adc           0x20          32  Read-only const 
.text.DRV_NVMCTRL_Trans    0x98afc            0xe          14   
.text.DRV_NVMCTRL_Read     0x98b0a            0xe          14   
.text.DRV_MEMORY_IsAtta    0x98b18            0xe          14   
.text.FATFS_eof            0x98b26            0xe          14   
.text.main                 0x98b34            0xe          14   
.text.tolower              0x98b42            0xe          14   
.text.toupper              0x98b50            0xe          14   
.text.DRV_NVMCTRL_PageW    0x98b5e            0xc          12   
.text.mem_set              0x98b6a            0xc          12   
.text.SYS_FS_MEDIA_MANA    0x98b78            0xc          12   
.text.FATFS_error          0x98b84            0xc          12   
.text.strcpy               0x98b90            0xc          12   
.text.DRV_NVMCTRL_Secto    0x98b9c            0xa          10   
.text.FATFS_read           0x98ba6            0xa          10   
.text.FATFS_lseek          0x98bb0            0xa          10   
.text.FATFS_gets           0x98bba            0xa          10   
.text.FATFS_write          0x98bc4            0xa          10   
.text.FATFS_truncate       0x98bce            0xa          10   
.text.FATFS_sync           0x98bd8            0xa          10   
.text.FATFS_putc           0x98be2            0xa          10   
.text.FATFS_puts           0x98bec            0xa          10   
.text.FATFS_printf         0x98bf6            0xa          10   
.text.DRV_MEMORY_EventH    0x98c00            0x8           8   
.text.SYS_FS_Tasks         0x98c08            0x8           8   
.rodata                    0x98c10            0x8           8  Read-only const 
.rodata.gPartitionTypeO    0x98c18            0x8           8   
.text.FATFS_getlabel       0x98c20            0x8           8   
.text.FATFS_getcwd         0x98c28            0x8           8   
.text.FATFS_chdir          0x98c30            0x8           8   
.text.FATFS_mkdir          0x98c38            0x8           8   
.text.FATFS_unlink         0x98c40            0x8           8   
.text.FATFS_setlabel       0x98c48            0x8           8   
.text.FATFS_chmod          0x98c50            0x8           8   
.text.FATFS_utime          0x98c58            0x8           8   
.text.FATFS_rename         0x98c60            0x8           8   
.text.FATFS_fdisk          0x98c68            0x8           8   
.rodata.sysFSInit          0x98c70            0x8           8   
.text.__get_stdout         0x98c78            0x8           8   
.text.__read               0x98c80            0x8           8   
.text.__aeabi_dsub         0x98c88            0x8           8   
.text.close                0x98c90            0x8           8   
.rodata                    0x98c98            0x7           7  Read-only const 
.text.__dummy              0x98ca0            0x6           6   
.text.__fwrite_min         0x98ca6            0x6           6   
.text.DRV_NVMCTRL_Statu    0x98cac            0x4           4   
.text.disk_status          0x98cb0            0x4           4   
.text.FATFS_tell           0x98cb4            0x4           4   
.text.FATFS_size           0x98cb8            0x4           4   
.text.Dummy_Handler        0x98cbc            0x4           4   
.text.NonMaskableInt_Ha    0x98cc0            0x4           4   
.text.HardFault_Handler    0x98cc4            0x4           4   
.text.DebugMonitor_Hand    0x98cc8            0x4           4   
.text.MemoryManagement_    0x98ccc            0x4           4   
.text.BusFault_Handler     0x98cd0            0x4           4   
.text.UsageFault_Handle    0x98cd4            0x4           4   
.text                      0x98cd8            0x4           4  App's exec code 
.text.lseek                0x98cdc            0x4           4   
      Total ROM used  :     0x18f53      102227  9.7% of 0x100000
        --------------------------------------------------------------------------
         Total Program Memory used  :     0x18f53      102227  9.7% of 0x100000
        --------------------------------------------------------------------------


RAM Data-Memory Usage
section                    address  length [bytes]      (dec)  Description
-------                 ----------  -------------------------  -----------
.bss.gDrvMemory0EraseBu 0x20000000         0x2000        8192   
.bss.gSYSFSMediaBlockBu 0x20002000          0x800        2048   
.bss                    0x20002800          0x408        1032  Uninitialized data 
.bss.gSYSFSCurrentMount 0x20002c08            0x8           8   
.bss.FATFSVolume        0x20002c10          0x250         592   
.bss.FATFSFileObject    0x20002e60          0x240         576   
.bss                    0x200030a0          0x20c         524  Uninitialized data 
.bss.LfnBuf             0x200032ac          0x200         512   
.bss.FatFs              0x200034ac            0x4           4   
.bss.gSYSFSMediaBuffer  0x200034b0          0x200         512   
.bss.gSYSFSFileObj      0x200036b0          0x110         272   
.bss.gDrvMemoryObj      0x200037c0           0x98         152   
.data                   0x20003858           0xe0         224  Initialized data 
.bss                    0x20003938           0x50          80  Uninitialized data 
.bss.gSYSFSObj          0x20003988            0x8           8   
.bss.FATFSDirObject     0x20003990           0x38          56   
.bss.gSYSFSMediaObject  0x200039c8           0x28          40   
.bss.gDrvMemory0BufferO 0x200039f0           0x24          36   
.data                   0x20003a14           0x20          32  Initialized data 
.bss                    0x20003a34           0x1c          28  Uninitialized data 
.bss.gSYSFSVolumeObject 0x20003a50           0x1c          28   
.data.gSYSFSMediaManage 0x20003a6c           0x18          24   
.data.gSYSFSVolumeName  0x20003a84           0x14          20   
.bss.Files              0x20003a98           0x10          16   
.bss.gSYSFSDirObj       0x20003aa8           0x10          16   
.bss.gSYSFSMountPoint   0x20003ab8           0x10          16   
.bss.gDrvMemory0ClientO 0x20003ac8           0x10          16   
.bss.sysfsMountTable    0x20003ad8            0xc          12   
.bss.appData            0x20003ae4            0xc          12   
.bss.gSysFsDiskData     0x20003af0            0x8           8   
.bss                    0x20003af8            0x8           8  Uninitialized data 
.bss.sysObj             0x20003b00            0x4           4   
.bss                    0x20003b04           0x10          16  Uninitialized data 
.bss.VolToPart          0x20003b14            0x2           2   
.bss.nvm_error          0x20003b16            0x2           2   
.bss.Fsid               0x20003b18            0x2           2   
.bss.CurrVol            0x20003b1a            0x1           1   
.bss.errorValue         0x20003b1b            0x1           1   
.bss.gSysFsMutex        0x20003b1c            0x1           1   
.bss.startupflag        0x20003b1d            0x1           1   
         Total RAM used  :      0x3b1e       15134  5.8% of 0x40000
        --------------------------------------------------------------------------
            Total Data Memory used  :      0x3b1e       15134  5.8% of 0x40000
        --------------------------------------------------------------------------


Dynamic Data-Memory Reservation
section                    address  length [bytes]      (dec)  Description
-------                 ----------  -------------------------  -----------
heap                    0x20003b20          0x200         512  Reserved for heap 
stack                   0x20003d38        0x3c2b8      246456  Reserved for stack 

        --------------------------------------------------------------------------

Discarded input sections

 .text          0x00000000        0x0 c:/program files/microchip/xc32/v4.00/bin/bin/../../lib/gcc/pic32c/8.3.1/thumb/v7e-m+fp/hard/crti.o
 .data          0x00000000        0x0 c:/program files/microchip/xc32/v4.00/bin/bin/../../lib/gcc/pic32c/8.3.1/thumb/v7e-m+fp/hard/crti.o
 .bss           0x00000000        0x0 c:/program files/microchip/xc32/v4.00/bin/bin/../../lib/gcc/pic32c/8.3.1/thumb/v7e-m+fp/hard/crti.o
 .xc_stack_usage.hdr
                0x00000000        0xe c:/program files/microchip/xc32/v4.00/bin/bin/../../lib/gcc/pic32c/8.3.1/thumb/v7e-m+fp/hard/crti.o
 .xc_stack_usage
                0x00000000       0x26 c:/program files/microchip/xc32/v4.00/bin/bin/../../lib/gcc/pic32c/8.3.1/thumb/v7e-m+fp/hard/crti.o
 .data          0x00000000        0x4 c:/program files/microchip/xc32/v4.00/bin/bin/../../lib/gcc/pic32c/8.3.1/thumb/v7e-m+fp/hard/crtbegin.o
 .xc_stack_usage
                0x00000000       0x3c c:/program files/microchip/xc32/v4.00/bin/bin/../../lib/gcc/pic32c/8.3.1/thumb/v7e-m+fp/hard/crtbegin.o
 .xc_stack_usage.hdr
                0x00000000        0xe c:/program files/microchip/xc32/v4.00/bin/bin/../../lib/gcc/pic32c/8.3.1/thumb/v7e-m+fp/hard/crtbegin.o
 .text          0x00000000        0x0 build/sam_e54_xpro/debug/_ext/544748269/bsp.o
 .data          0x00000000        0x0 build/sam_e54_xpro/debug/_ext/544748269/bsp.o
 .bss           0x00000000        0x0 build/sam_e54_xpro/debug/_ext/544748269/bsp.o
 .text          0x00000000        0x0 build/sam_e54_xpro/debug/_ext/1062319119/drv_memory_nvmctrl.o
 .data          0x00000000        0x0 build/sam_e54_xpro/debug/_ext/1062319119/drv_memory_nvmctrl.o
 .bss           0x00000000        0x0 build/sam_e54_xpro/debug/_ext/1062319119/drv_memory_nvmctrl.o
 .text          0x00000000        0x0 build/sam_e54_xpro/debug/_ext/1062319119/drv_memory.o
 .data          0x00000000        0x0 build/sam_e54_xpro/debug/_ext/1062319119/drv_memory.o
 .bss           0x00000000        0x0 build/sam_e54_xpro/debug/_ext/1062319119/drv_memory.o
 .text.DRV_MEMORY_RegisterWithSysFs
                0x00000000        0x2 build/sam_e54_xpro/debug/_ext/1062319119/drv_memory.o
 .text.DRV_MEMORY_Status
                0x00000000       0x14 build/sam_e54_xpro/debug/_ext/1062319119/drv_memory.o
 .text.DRV_MEMORY_AsyncWrite
                0x00000000       0x1a build/sam_e54_xpro/debug/_ext/1062319119/drv_memory.o
 .text.DRV_MEMORY_TransferStatusGet
                0x00000000       0x28 build/sam_e54_xpro/debug/_ext/1062319119/drv_memory.o
 .text.DRV_MEMORY_IsWriteProtected
                0x00000000        0x4 build/sam_e54_xpro/debug/_ext/1062319119/drv_memory.o
 .text          0x00000000        0x0 build/sam_e54_xpro/debug/_ext/1062319119/drv_memory_file_system.o
 .data          0x00000000        0x0 build/sam_e54_xpro/debug/_ext/1062319119/drv_memory_file_system.o
 .bss           0x00000000        0x0 build/sam_e54_xpro/debug/_ext/1062319119/drv_memory_file_system.o
 .text          0x00000000        0x0 build/sam_e54_xpro/debug/_ext/2056749927/plib_clock.o
 .data          0x00000000        0x0 build/sam_e54_xpro/debug/_ext/2056749927/plib_clock.o
 .bss           0x00000000        0x0 build/sam_e54_xpro/debug/_ext/2056749927/plib_clock.o
 .text          0x00000000        0x0 build/sam_e54_xpro/debug/_ext/349294639/plib_cmcc.o
 .data          0x00000000        0x0 build/sam_e54_xpro/debug/_ext/349294639/plib_cmcc.o
 .bss           0x00000000        0x0 build/sam_e54_xpro/debug/_ext/349294639/plib_cmcc.o
 .text.CMCC_Disable
                0x00000000       0x18 build/sam_e54_xpro/debug/_ext/349294639/plib_cmcc.o
 .text.CMCC_EnableICache
                0x00000000       0x28 build/sam_e54_xpro/debug/_ext/349294639/plib_cmcc.o
 .text.CMCC_DisableICache
                0x00000000       0x28 build/sam_e54_xpro/debug/_ext/349294639/plib_cmcc.o
 .text.CMCC_EnableDCache
                0x00000000       0x28 build/sam_e54_xpro/debug/_ext/349294639/plib_cmcc.o
 .text.CMCC_DisableDCache
                0x00000000       0x28 build/sam_e54_xpro/debug/_ext/349294639/plib_cmcc.o
 .text.CMCC_InvalidateAll
                0x00000000       0x20 build/sam_e54_xpro/debug/_ext/349294639/plib_cmcc.o
 .debug_info    0x00000000      0x557 build/sam_e54_xpro/debug/_ext/349294639/plib_cmcc.o
 .debug_abbrev  0x00000000       0xac build/sam_e54_xpro/debug/_ext/349294639/plib_cmcc.o
 .debug_aranges
                0x00000000       0x48 build/sam_e54_xpro/debug/_ext/349294639/plib_cmcc.o
 .debug_ranges  0x00000000       0x38 build/sam_e54_xpro/debug/_ext/349294639/plib_cmcc.o
 .debug_line    0x00000000      0x240 build/sam_e54_xpro/debug/_ext/349294639/plib_cmcc.o
 .debug_str     0x00000000        0x0 build/sam_e54_xpro/debug/_ext/349294639/plib_cmcc.o
 .comment       0x00000000       0x54 build/sam_e54_xpro/debug/_ext/349294639/plib_cmcc.o
 .debug_frame   0x00000000       0x70 build/sam_e54_xpro/debug/_ext/349294639/plib_cmcc.o
 .ARM.attributes
                0x00000000       0x34 build/sam_e54_xpro/debug/_ext/349294639/plib_cmcc.o
 .text          0x00000000        0x0 build/sam_e54_xpro/debug/_ext/2058899413/plib_evsys.o
 .data          0x00000000        0x0 build/sam_e54_xpro/debug/_ext/2058899413/plib_evsys.o
 .bss           0x00000000        0x0 build/sam_e54_xpro/debug/_ext/2058899413/plib_evsys.o
 .text          0x00000000        0x0 build/sam_e54_xpro/debug/_ext/1950920501/plib_mpu.o
 .data          0x00000000        0x0 build/sam_e54_xpro/debug/_ext/1950920501/plib_mpu.o
 .bss           0x00000000        0x0 build/sam_e54_xpro/debug/_ext/1950920501/plib_mpu.o
 .text          0x00000000        0x0 build/sam_e54_xpro/debug/_ext/348958103/plib_nvic.o
 .data          0x00000000        0x0 build/sam_e54_xpro/debug/_ext/348958103/plib_nvic.o
 .bss           0x00000000        0x0 build/sam_e54_xpro/debug/_ext/348958103/plib_nvic.o
 .text.NVIC_INT_Enable
                0x00000000        0x8 build/sam_e54_xpro/debug/_ext/348958103/plib_nvic.o
 .text.NVIC_INT_Disable
                0x00000000       0x12 build/sam_e54_xpro/debug/_ext/348958103/plib_nvic.o
 .text.NVIC_INT_Restore
                0x00000000       0x12 build/sam_e54_xpro/debug/_ext/348958103/plib_nvic.o
 .text          0x00000000        0x0 build/sam_e54_xpro/debug/_ext/1986180951/plib_nvmctrl.o
 .data          0x00000000        0x0 build/sam_e54_xpro/debug/_ext/1986180951/plib_nvmctrl.o
 .bss           0x00000000        0x0 build/sam_e54_xpro/debug/_ext/1986180951/plib_nvmctrl.o
 .text.NVMCTRL_SetWriteMode
                0x00000000       0x14 build/sam_e54_xpro/debug/_ext/1986180951/plib_nvmctrl.o
 .text.NVMCTRL_QuadWordWrite
                0x00000000       0x4c build/sam_e54_xpro/debug/_ext/1986180951/plib_nvmctrl.o
 .text.NVMCTRL_DoubleWordWrite
                0x00000000       0x40 build/sam_e54_xpro/debug/_ext/1986180951/plib_nvmctrl.o
 .text.NVMCTRL_PageBufferWrite
                0x00000000       0x2c build/sam_e54_xpro/debug/_ext/1986180951/plib_nvmctrl.o
 .text.NVMCTRL_PageBufferCommit
                0x00000000       0x28 build/sam_e54_xpro/debug/_ext/1986180951/plib_nvmctrl.o
 .text.NVMCTRL_ErrorGet
                0x00000000       0x20 build/sam_e54_xpro/debug/_ext/1986180951/plib_nvmctrl.o
 .text.NVMCTRL_StatusGet
                0x00000000        0xc build/sam_e54_xpro/debug/_ext/1986180951/plib_nvmctrl.o
 .text.NVMCTRL_RegionLock
                0x00000000       0x10 build/sam_e54_xpro/debug/_ext/1986180951/plib_nvmctrl.o
 .text.NVMCTRL_RegionUnlock
                0x00000000       0x10 build/sam_e54_xpro/debug/_ext/1986180951/plib_nvmctrl.o
 .text.NVMCTRL_RegionLockStatusGet
                0x00000000        0xc build/sam_e54_xpro/debug/_ext/1986180951/plib_nvmctrl.o
 .text.NVMCTRL_SmartEEPROM_IsBusy
                0x00000000       0x10 build/sam_e54_xpro/debug/_ext/1986180951/plib_nvmctrl.o
 .text.NVMCTRL_SmartEEPROMStatusGet
                0x00000000        0xc build/sam_e54_xpro/debug/_ext/1986180951/plib_nvmctrl.o
 .text.NVMCTRL_SmartEEPROM_IsActiveSectorFull
                0x00000000       0x10 build/sam_e54_xpro/debug/_ext/1986180951/plib_nvmctrl.o
 .text.NVMCTRL_BankSwap
                0x00000000       0x10 build/sam_e54_xpro/debug/_ext/1986180951/plib_nvmctrl.o
 .text.NVMCTRL_SmartEEPROMSectorReallocate
                0x00000000       0x10 build/sam_e54_xpro/debug/_ext/1986180951/plib_nvmctrl.o
 .text.NVMCTRL_SmartEEPROMFlushPageBuffer
                0x00000000       0x18 build/sam_e54_xpro/debug/_ext/1986180951/plib_nvmctrl.o
 .text          0x00000000        0x0 build/sam_e54_xpro/debug/_ext/348904952/plib_port.o
 .data          0x00000000        0x0 build/sam_e54_xpro/debug/_ext/348904952/plib_port.o
 .bss           0x00000000        0x0 build/sam_e54_xpro/debug/_ext/348904952/plib_port.o
 .text.PORT_GroupRead
                0x00000000        0x4 build/sam_e54_xpro/debug/_ext/348904952/plib_port.o
 .text.PORT_GroupWrite
                0x00000000        0xc build/sam_e54_xpro/debug/_ext/348904952/plib_port.o
 .text.PORT_GroupLatchRead
                0x00000000        0x4 build/sam_e54_xpro/debug/_ext/348904952/plib_port.o
 .text.PORT_GroupSet
                0x00000000        0x4 build/sam_e54_xpro/debug/_ext/348904952/plib_port.o
 .text.PORT_GroupClear
                0x00000000        0x4 build/sam_e54_xpro/debug/_ext/348904952/plib_port.o
 .text.PORT_GroupToggle
                0x00000000        0x4 build/sam_e54_xpro/debug/_ext/348904952/plib_port.o
 .text.PORT_GroupInputEnable
                0x00000000        0x4 build/sam_e54_xpro/debug/_ext/348904952/plib_port.o
 .text.PORT_GroupOutputEnable
                0x00000000        0x4 build/sam_e54_xpro/debug/_ext/348904952/plib_port.o
 .text.PORT_PinPeripheralFunctionConfig
                0x00000000       0x4a build/sam_e54_xpro/debug/_ext/348904952/plib_port.o
 .text.PORT_PinGPIOConfig
                0x00000000       0x20 build/sam_e54_xpro/debug/_ext/348904952/plib_port.o
 .text          0x00000000        0x0 build/sam_e54_xpro/debug/_ext/498645085/xc32_monitor.o
 .data          0x00000000        0x0 build/sam_e54_xpro/debug/_ext/498645085/xc32_monitor.o
 .bss           0x00000000        0x0 build/sam_e54_xpro/debug/_ext/498645085/xc32_monitor.o
 .text._mon_getc
                0x00000000       0x1c build/sam_e54_xpro/debug/_ext/498645085/xc32_monitor.o
 .text          0x00000000        0x0 build/sam_e54_xpro/debug/_ext/2098947918/sys_cache.o
 .data          0x00000000        0x0 build/sam_e54_xpro/debug/_ext/2098947918/sys_cache.o
 .bss           0x00000000        0x0 build/sam_e54_xpro/debug/_ext/2098947918/sys_cache.o
 .text.SYS_CACHE_EnableCaches
                0x00000000        0x2 build/sam_e54_xpro/debug/_ext/2098947918/sys_cache.o
 .text.SYS_CACHE_DisableCaches
                0x00000000        0x2 build/sam_e54_xpro/debug/_ext/2098947918/sys_cache.o
 .text.SYS_CACHE_EnableICache
                0x00000000        0x2 build/sam_e54_xpro/debug/_ext/2098947918/sys_cache.o
 .text.SYS_CACHE_DisableICache
                0x00000000        0x2 build/sam_e54_xpro/debug/_ext/2098947918/sys_cache.o
 .text.SYS_CACHE_InvalidateICache
                0x00000000        0x2 build/sam_e54_xpro/debug/_ext/2098947918/sys_cache.o
 .text.SYS_CACHE_EnableDCache
                0x00000000        0x2 build/sam_e54_xpro/debug/_ext/2098947918/sys_cache.o
 .text.SYS_CACHE_DisableDCache
                0x00000000        0x2 build/sam_e54_xpro/debug/_ext/2098947918/sys_cache.o
 .text.SYS_CACHE_InvalidateDCache
                0x00000000        0x2 build/sam_e54_xpro/debug/_ext/2098947918/sys_cache.o
 .text.SYS_CACHE_CleanDCache
                0x00000000        0x2 build/sam_e54_xpro/debug/_ext/2098947918/sys_cache.o
 .text.SYS_CACHE_CleanInvalidateDCache
                0x00000000        0x2 build/sam_e54_xpro/debug/_ext/2098947918/sys_cache.o
 .text.SYS_CACHE_InvalidateDCache_by_Addr
                0x00000000        0x2 build/sam_e54_xpro/debug/_ext/2098947918/sys_cache.o
 .text.SYS_CACHE_CleanDCache_by_Addr
                0x00000000        0x2 build/sam_e54_xpro/debug/_ext/2098947918/sys_cache.o
 .text.SYS_CACHE_CleanInvalidateDCache_by_Addr
                0x00000000        0x2 build/sam_e54_xpro/debug/_ext/2098947918/sys_cache.o
 .debug_info    0x00000000      0x5e9 build/sam_e54_xpro/debug/_ext/2098947918/sys_cache.o
 .debug_abbrev  0x00000000       0xa9 build/sam_e54_xpro/debug/_ext/2098947918/sys_cache.o
 .debug_aranges
                0x00000000       0x80 build/sam_e54_xpro/debug/_ext/2098947918/sys_cache.o
 .debug_ranges  0x00000000       0x70 build/sam_e54_xpro/debug/_ext/2098947918/sys_cache.o
 .debug_line    0x00000000      0x1ca build/sam_e54_xpro/debug/_ext/2098947918/sys_cache.o
 .debug_str     0x00000000        0x0 build/sam_e54_xpro/debug/_ext/2098947918/sys_cache.o
 .comment       0x00000000       0x54 build/sam_e54_xpro/debug/_ext/2098947918/sys_cache.o
 .debug_frame   0x00000000       0xe0 build/sam_e54_xpro/debug/_ext/2098947918/sys_cache.o
 .ARM.attributes
                0x00000000       0x34 build/sam_e54_xpro/debug/_ext/2098947918/sys_cache.o
 .text          0x00000000        0x0 build/sam_e54_xpro/debug/_ext/1171329604/ff.o
 .data          0x00000000        0x0 build/sam_e54_xpro/debug/_ext/1171329604/ff.o
 .bss           0x00000000        0x0 build/sam_e54_xpro/debug/_ext/1171329604/ff.o
 .text          0x00000000        0x0 build/sam_e54_xpro/debug/_ext/1171329604/ffunicode.o
 .data          0x00000000        0x0 build/sam_e54_xpro/debug/_ext/1171329604/ffunicode.o
 .bss           0x00000000        0x0 build/sam_e54_xpro/debug/_ext/1171329604/ffunicode.o
 .text          0x00000000        0x0 build/sam_e54_xpro/debug/_ext/656274803/diskio.o
 .data          0x00000000        0x0 build/sam_e54_xpro/debug/_ext/656274803/diskio.o
 .bss           0x00000000        0x0 build/sam_e54_xpro/debug/_ext/656274803/diskio.o
 .text          0x00000000        0x0 build/sam_e54_xpro/debug/_ext/743848790/sys_fs.o
 .data          0x00000000        0x0 build/sam_e54_xpro/debug/_ext/743848790/sys_fs.o
 .bss           0x00000000        0x0 build/sam_e54_xpro/debug/_ext/743848790/sys_fs.o
 .text.SYS_FS_Unmount
                0x00000000       0xf0 build/sam_e54_xpro/debug/_ext/743848790/sys_fs.o
 .text.SYS_FS_FileNameGet
                0x00000000       0x50 build/sam_e54_xpro/debug/_ext/743848790/sys_fs.o
 .text.SYS_FS_FileRead
                0x00000000       0x74 build/sam_e54_xpro/debug/_ext/743848790/sys_fs.o
 .text.SYS_FS_FileSeek
                0x00000000       0xc8 build/sam_e54_xpro/debug/_ext/743848790/sys_fs.o
 .text.SYS_FS_FileTell
                0x00000000       0x68 build/sam_e54_xpro/debug/_ext/743848790/sys_fs.o
 .text.SYS_FS_FileSize
                0x00000000       0x68 build/sam_e54_xpro/debug/_ext/743848790/sys_fs.o
 .text.SYS_FS_FileEOF
                0x00000000       0x5c build/sam_e54_xpro/debug/_ext/743848790/sys_fs.o
 .text.SYS_FS_Error
                0x00000000        0xc build/sam_e54_xpro/debug/_ext/743848790/sys_fs.o
 .text.SYS_FS_FileError
                0x00000000       0x16 build/sam_e54_xpro/debug/_ext/743848790/sys_fs.o
 .text.SYS_FS_DirOpen
                0x00000000       0xc8 build/sam_e54_xpro/debug/_ext/743848790/sys_fs.o
 .text.SYS_FS_DirClose
                0x00000000       0x70 build/sam_e54_xpro/debug/_ext/743848790/sys_fs.o
 .text.SYS_FS_DirRead
                0x00000000       0x74 build/sam_e54_xpro/debug/_ext/743848790/sys_fs.o
 .text.SYS_FS_DirRewind
                0x00000000       0x6c build/sam_e54_xpro/debug/_ext/743848790/sys_fs.o
 .text.SYS_FS_DirSearch
                0x00000000      0x140 build/sam_e54_xpro/debug/_ext/743848790/sys_fs.o
 .text.SYS_FS_FileStringGet
                0x00000000       0x80 build/sam_e54_xpro/debug/_ext/743848790/sys_fs.o
 .text.SYS_FS_DirectoryChange
                0x00000000       0x88 build/sam_e54_xpro/debug/_ext/743848790/sys_fs.o
 .text.SYS_FS_CurrentWorkingDirectoryGet
                0x00000000      0x110 build/sam_e54_xpro/debug/_ext/743848790/sys_fs.o
 .text.SYS_FS_CurrentDriveGet
                0x00000000       0x4c build/sam_e54_xpro/debug/_ext/743848790/sys_fs.o
 .text.SYS_FS_DriveLabelGet
                0x00000000       0xa8 build/sam_e54_xpro/debug/_ext/743848790/sys_fs.o
 .text.SYS_FS_FileSync
                0x00000000       0x6c build/sam_e54_xpro/debug/_ext/743848790/sys_fs.o
 .text.SYS_FS_FileTruncate
                0x00000000       0x68 build/sam_e54_xpro/debug/_ext/743848790/sys_fs.o
 .text.SYS_FS_FileCharacterPut
                0x00000000       0x74 build/sam_e54_xpro/debug/_ext/743848790/sys_fs.o
 .text.SYS_FS_FileStringPut
                0x00000000       0x78 build/sam_e54_xpro/debug/_ext/743848790/sys_fs.o
 .text.SYS_FS_FilePrintf
                0x00000000       0x8c build/sam_e54_xpro/debug/_ext/743848790/sys_fs.o
 .text.SYS_FS_FileTestError
                0x00000000       0x5c build/sam_e54_xpro/debug/_ext/743848790/sys_fs.o
 .text.SYS_FS_DirectoryMake
                0x00000000       0x88 build/sam_e54_xpro/debug/_ext/743848790/sys_fs.o
 .text.SYS_FS_FileDirectoryRemove
                0x00000000       0x88 build/sam_e54_xpro/debug/_ext/743848790/sys_fs.o
 .text.SYS_FS_FileDirectoryModeSet
                0x00000000       0x90 build/sam_e54_xpro/debug/_ext/743848790/sys_fs.o
 .text.SYS_FS_FileDirectoryTimeSet
                0x00000000       0xa0 build/sam_e54_xpro/debug/_ext/743848790/sys_fs.o
 .text.SYS_FS_FileDirectoryRenameMove
                0x00000000       0xb0 build/sam_e54_xpro/debug/_ext/743848790/sys_fs.o
 .text.SYS_FS_CurrentDriveSet
                0x00000000       0xa0 build/sam_e54_xpro/debug/_ext/743848790/sys_fs.o
 .text.SYS_FS_DriveLabelSet
                0x00000000       0xb4 build/sam_e54_xpro/debug/_ext/743848790/sys_fs.o
 .text.SYS_FS_DriveFormat
                0x00000000       0x74 build/sam_e54_xpro/debug/_ext/743848790/sys_fs.o
 .text.SYS_FS_DrivePartition
                0x00000000       0x78 build/sam_e54_xpro/debug/_ext/743848790/sys_fs.o
 .text.SYS_FS_DriveSectorGet
                0x00000000       0xb4 build/sam_e54_xpro/debug/_ext/743848790/sys_fs.o
 .text          0x00000000        0x0 build/sam_e54_xpro/debug/_ext/743848790/sys_fs_media_manager.o
 .data          0x00000000        0x0 build/sam_e54_xpro/debug/_ext/743848790/sys_fs_media_manager.o
 .bss           0x00000000        0x0 build/sam_e54_xpro/debug/_ext/743848790/sys_fs_media_manager.o
 .text.SYS_FS_MEDIA_MANAGER_DeRegister
                0x00000000        0xc build/sam_e54_xpro/debug/_ext/743848790/sys_fs_media_manager.o
 .text.SYS_FS_MEDIA_MANAGER_Read
                0x00000000       0x4c build/sam_e54_xpro/debug/_ext/743848790/sys_fs_media_manager.o
 .text.SYS_FS_MEDIA_MANAGER_AddressGet
                0x00000000       0x1c build/sam_e54_xpro/debug/_ext/743848790/sys_fs_media_manager.o
 .text.SYS_FS_MEDIA_MANAGER_CommandStatusGet
                0x00000000       0x28 build/sam_e54_xpro/debug/_ext/743848790/sys_fs_media_manager.o
 .text          0x00000000        0x0 build/sam_e54_xpro/debug/_ext/743848790/sys_fs_fat_interface.o
 .data          0x00000000        0x0 build/sam_e54_xpro/debug/_ext/743848790/sys_fs_fat_interface.o
 .bss           0x00000000        0x0 build/sam_e54_xpro/debug/_ext/743848790/sys_fs_fat_interface.o
 .text.FATFS_getfree
                0x00000000        0x8 build/sam_e54_xpro/debug/_ext/743848790/sys_fs_fat_interface.o
 .text          0x00000000        0x0 build/sam_e54_xpro/debug/_ext/129427312/sys_int.o
 .data          0x00000000        0x0 build/sam_e54_xpro/debug/_ext/129427312/sys_int.o
 .bss           0x00000000        0x0 build/sam_e54_xpro/debug/_ext/129427312/sys_int.o
 .text.SYS_INT_Enable
                0x00000000        0x8 build/sam_e54_xpro/debug/_ext/129427312/sys_int.o
 .text.SYS_INT_Disable
                0x00000000        0x8 build/sam_e54_xpro/debug/_ext/129427312/sys_int.o
 .text.SYS_INT_Restore
                0x00000000        0x8 build/sam_e54_xpro/debug/_ext/129427312/sys_int.o
 .text.SYS_INT_SourceDisable
                0x00000000       0x44 build/sam_e54_xpro/debug/_ext/129427312/sys_int.o
 .text.SYS_INT_SourceRestore
                0x00000000       0x20 build/sam_e54_xpro/debug/_ext/129427312/sys_int.o
 .debug_info    0x00000000     0x11c6 build/sam_e54_xpro/debug/_ext/129427312/sys_int.o
 .debug_abbrev  0x00000000      0x253 build/sam_e54_xpro/debug/_ext/129427312/sys_int.o
 .debug_loc     0x00000000      0x182 build/sam_e54_xpro/debug/_ext/129427312/sys_int.o
 .debug_aranges
                0x00000000       0x40 build/sam_e54_xpro/debug/_ext/129427312/sys_int.o
 .debug_ranges  0x00000000       0x30 build/sam_e54_xpro/debug/_ext/129427312/sys_int.o
 .debug_line    0x00000000      0x2ce build/sam_e54_xpro/debug/_ext/129427312/sys_int.o
 .debug_str     0x00000000       0x32 build/sam_e54_xpro/debug/_ext/129427312/sys_int.o
 .comment       0x00000000       0x54 build/sam_e54_xpro/debug/_ext/129427312/sys_int.o
 .debug_frame   0x00000000       0x84 build/sam_e54_xpro/debug/_ext/129427312/sys_int.o
 .ARM.attributes
                0x00000000       0x34 build/sam_e54_xpro/debug/_ext/129427312/sys_int.o
 .text          0x00000000        0x0 build/sam_e54_xpro/debug/_ext/68098787/initialization.o
 .data          0x00000000        0x0 build/sam_e54_xpro/debug/_ext/68098787/initialization.o
 .bss           0x00000000        0x0 build/sam_e54_xpro/debug/_ext/68098787/initialization.o
 .text          0x00000000        0x0 build/sam_e54_xpro/debug/_ext/68098787/interrupts.o
 .data          0x00000000        0x0 build/sam_e54_xpro/debug/_ext/68098787/interrupts.o
 .bss           0x00000000        0x0 build/sam_e54_xpro/debug/_ext/68098787/interrupts.o
 .text          0x00000000        0x0 build/sam_e54_xpro/debug/_ext/68098787/exceptions.o
 .data          0x00000000        0x0 build/sam_e54_xpro/debug/_ext/68098787/exceptions.o
 .bss           0x00000000        0x0 build/sam_e54_xpro/debug/_ext/68098787/exceptions.o
 .text          0x00000000        0x0 build/sam_e54_xpro/debug/_ext/68098787/startup_xc32.o
 .data          0x00000000        0x0 build/sam_e54_xpro/debug/_ext/68098787/startup_xc32.o
 .bss           0x00000000        0x0 build/sam_e54_xpro/debug/_ext/68098787/startup_xc32.o
 .text          0x00000000        0x0 build/sam_e54_xpro/debug/_ext/68098787/libc_syscalls.o
 .data          0x00000000        0x0 build/sam_e54_xpro/debug/_ext/68098787/libc_syscalls.o
 .bss           0x00000000        0x0 build/sam_e54_xpro/debug/_ext/68098787/libc_syscalls.o
 .text._exit    0x00000000        0x4 build/sam_e54_xpro/debug/_ext/68098787/libc_syscalls.o
 .debug_info    0x00000000      0x398 build/sam_e54_xpro/debug/_ext/68098787/libc_syscalls.o
 .debug_abbrev  0x00000000       0xb3 build/sam_e54_xpro/debug/_ext/68098787/libc_syscalls.o
 .debug_aranges
                0x00000000       0x20 build/sam_e54_xpro/debug/_ext/68098787/libc_syscalls.o
 .debug_ranges  0x00000000       0x10 build/sam_e54_xpro/debug/_ext/68098787/libc_syscalls.o
 .debug_line    0x00000000      0x127 build/sam_e54_xpro/debug/_ext/68098787/libc_syscalls.o
 .debug_str     0x00000000        0x0 build/sam_e54_xpro/debug/_ext/68098787/libc_syscalls.o
 .comment       0x00000000       0x54 build/sam_e54_xpro/debug/_ext/68098787/libc_syscalls.o
 .debug_frame   0x00000000       0x20 build/sam_e54_xpro/debug/_ext/68098787/libc_syscalls.o
 .ARM.attributes
                0x00000000       0x34 build/sam_e54_xpro/debug/_ext/68098787/libc_syscalls.o
 .text          0x00000000        0x0 build/sam_e54_xpro/debug/_ext/68098787/tasks.o
 .data          0x00000000        0x0 build/sam_e54_xpro/debug/_ext/68098787/tasks.o
 .bss           0x00000000        0x0 build/sam_e54_xpro/debug/_ext/68098787/tasks.o
 .text          0x00000000        0x0 build/sam_e54_xpro/debug/_ext/1360937237/nvm_disk_images.o
 .data          0x00000000        0x0 build/sam_e54_xpro/debug/_ext/1360937237/nvm_disk_images.o
 .bss           0x00000000        0x0 build/sam_e54_xpro/debug/_ext/1360937237/nvm_disk_images.o
 .text          0x00000000        0x0 build/sam_e54_xpro/debug/_ext/1360937237/main.o
 .data          0x00000000        0x0 build/sam_e54_xpro/debug/_ext/1360937237/main.o
 .bss           0x00000000        0x0 build/sam_e54_xpro/debug/_ext/1360937237/main.o
 .text          0x00000000        0x0 build/sam_e54_xpro/debug/_ext/1360937237/app.o
 .data          0x00000000        0x0 build/sam_e54_xpro/debug/_ext/1360937237/app.o
 .bss           0x00000000        0x0 build/sam_e54_xpro/debug/_ext/1360937237/app.o
 .text          0x00000000        0x0 build/sam_e54_xpro/debug/_ext/2060180706/plib_sercom2_usart.o
 .data          0x00000000        0x0 build/sam_e54_xpro/debug/_ext/2060180706/plib_sercom2_usart.o
 .bss           0x00000000        0x0 build/sam_e54_xpro/debug/_ext/2060180706/plib_sercom2_usart.o
 .text.SERCOM2_USART_ErrorClear
                0x00000000       0x30 build/sam_e54_xpro/debug/_ext/2060180706/plib_sercom2_usart.o
 .text.SERCOM2_USART_FrequencyGet
                0x00000000        0x8 build/sam_e54_xpro/debug/_ext/2060180706/plib_sercom2_usart.o
 .text.SERCOM2_USART_SerialSetup
                0x00000000      0x128 build/sam_e54_xpro/debug/_ext/2060180706/plib_sercom2_usart.o
 .text.SERCOM2_USART_ErrorGet
                0x00000000       0x1c build/sam_e54_xpro/debug/_ext/2060180706/plib_sercom2_usart.o
 .text.SERCOM2_USART_TransmitterEnable
                0x00000000       0x18 build/sam_e54_xpro/debug/_ext/2060180706/plib_sercom2_usart.o
 .text.SERCOM2_USART_TransmitterDisable
                0x00000000       0x18 build/sam_e54_xpro/debug/_ext/2060180706/plib_sercom2_usart.o
 .text.SERCOM2_USART_TransmitterIsReady
                0x00000000       0x10 build/sam_e54_xpro/debug/_ext/2060180706/plib_sercom2_usart.o
 .text.SERCOM2_USART_TransmitComplete
                0x00000000       0x10 build/sam_e54_xpro/debug/_ext/2060180706/plib_sercom2_usart.o
 .text.SERCOM2_USART_WriteByte
                0x00000000       0x18 build/sam_e54_xpro/debug/_ext/2060180706/plib_sercom2_usart.o
 .text.SERCOM2_USART_ReceiverEnable
                0x00000000       0x18 build/sam_e54_xpro/debug/_ext/2060180706/plib_sercom2_usart.o
 .text.SERCOM2_USART_ReceiverDisable
                0x00000000       0x18 build/sam_e54_xpro/debug/_ext/2060180706/plib_sercom2_usart.o
 .text.SERCOM2_USART_Read
                0x00000000       0x58 build/sam_e54_xpro/debug/_ext/2060180706/plib_sercom2_usart.o
 .text.SERCOM2_USART_ReceiverIsReady
                0x00000000       0x10 build/sam_e54_xpro/debug/_ext/2060180706/plib_sercom2_usart.o
 .text.SERCOM2_USART_ReadByte
                0x00000000        0xc build/sam_e54_xpro/debug/_ext/2060180706/plib_sercom2_usart.o
 .text          0x00000000        0x0 c:/program files/microchip/xc32/v4.00/bin/bin/../../lib/gcc/pic32c/8.3.1/../../../../pic32c/lib/thumb/v7e-m+fp/hard\libpic32c.a(data_init.o)
 .data          0x00000000        0x0 c:/program files/microchip/xc32/v4.00/bin/bin/../../lib/gcc/pic32c/8.3.1/../../../../pic32c/lib/thumb/v7e-m+fp/hard\libpic32c.a(data_init.o)
 .xc_stack_usage
                0x00000000       0x2a c:/program files/microchip/xc32/v4.00/bin/bin/../../lib/gcc/pic32c/8.3.1/../../../../pic32c/lib/thumb/v7e-m+fp/hard\libpic32c.a(data_init.o)
 .xc_stack_usage.hdr
                0x00000000        0xe c:/program files/microchip/xc32/v4.00/bin/bin/../../lib/gcc/pic32c/8.3.1/../../../../pic32c/lib/thumb/v7e-m+fp/hard\libpic32c.a(data_init.o)
 .text          0x00000000        0x0 c:/program files/microchip/xc32/v4.00/bin/bin/../../lib/gcc/pic32c/8.3.1/../../../../pic32c/lib/thumb/v7e-m+fp/hard\libg-musl.a(__libc_start_main.o)
 .data          0x00000000        0x0 c:/program files/microchip/xc32/v4.00/bin/bin/../../lib/gcc/pic32c/8.3.1/../../../../pic32c/lib/thumb/v7e-m+fp/hard\libg-musl.a(__libc_start_main.o)
 .bss           0x00000000        0x0 c:/program files/microchip/xc32/v4.00/bin/bin/../../lib/gcc/pic32c/8.3.1/../../../../pic32c/lib/thumb/v7e-m+fp/hard\libg-musl.a(__libc_start_main.o)
 .xc_stack_usage
                0x00000000       0x34 c:/program files/microchip/xc32/v4.00/bin/bin/../../lib/gcc/pic32c/8.3.1/../../../../pic32c/lib/thumb/v7e-m+fp/hard\libg-musl.a(__libc_start_main.o)
 .xc_stack_usage.hdr
                0x00000000        0xe c:/program files/microchip/xc32/v4.00/bin/bin/../../lib/gcc/pic32c/8.3.1/../../../../pic32c/lib/thumb/v7e-m+fp/hard\libg-musl.a(__libc_start_main.o)
 .text          0x00000000        0x0 c:/program files/microchip/xc32/v4.00/bin/bin/../../lib/gcc/pic32c/8.3.1/../../../../pic32c/lib/thumb/v7e-m+fp/hard\libg-musl.a(libc.o)
 .data          0x00000000        0x0 c:/program files/microchip/xc32/v4.00/bin/bin/../../lib/gcc/pic32c/8.3.1/../../../../pic32c/lib/thumb/v7e-m+fp/hard\libg-musl.a(libc.o)
 .xc_stack_usage.hdr
                0x00000000        0xe c:/program files/microchip/xc32/v4.00/bin/bin/../../lib/gcc/pic32c/8.3.1/../../../../pic32c/lib/thumb/v7e-m+fp/hard\libg-musl.a(libc.o)
 .text          0x00000000        0x0 c:/program files/microchip/xc32/v4.00/bin/bin/../../lib/gcc/pic32c/8.3.1/../../../../pic32c/lib/thumb/v7e-m+fp/hard\libg-musl.a(stdin.o)
 .xc_stack_usage
                0x00000000       0x33 c:/program files/microchip/xc32/v4.00/bin/bin/../../lib/gcc/pic32c/8.3.1/../../../../pic32c/lib/thumb/v7e-m+fp/hard\libg-musl.a(stdin.o)
 .xc_stack_usage.hdr
                0x00000000        0xe c:/program files/microchip/xc32/v4.00/bin/bin/../../lib/gcc/pic32c/8.3.1/../../../../pic32c/lib/thumb/v7e-m+fp/hard\libg-musl.a(stdin.o)
 .text          0x00000000        0x0 c:/program files/microchip/xc32/v4.00/bin/bin/../../lib/gcc/pic32c/8.3.1/../../../../pic32c/lib/thumb/v7e-m+fp/hard\libg-musl.a(stdout.o)
 .xc_stack_usage
                0x00000000       0x51 c:/program files/microchip/xc32/v4.00/bin/bin/../../lib/gcc/pic32c/8.3.1/../../../../pic32c/lib/thumb/v7e-m+fp/hard\libg-musl.a(stdout.o)
 .text.__dummy  0x00000000        0x8 c:/program files/microchip/xc32/v4.00/bin/bin/../../lib/gcc/pic32c/8.3.1/../../../../pic32c/lib/thumb/v7e-m+fp/hard\libg-musl.a(stdout.o)
 .xc_stack_usage.hdr
                0x00000000        0xe c:/program files/microchip/xc32/v4.00/bin/bin/../../lib/gcc/pic32c/8.3.1/../../../../pic32c/lib/thumb/v7e-m+fp/hard\libg-musl.a(stdout.o)
 .text          0x00000000        0x0 c:/program files/microchip/xc32/v4.00/bin/bin/../../lib/gcc/pic32c/8.3.1/../../../../pic32c/lib/thumb/v7e-m+fp/hard\libg-musl.a(printf.o)
 .data          0x00000000        0x0 c:/program files/microchip/xc32/v4.00/bin/bin/../../lib/gcc/pic32c/8.3.1/../../../../pic32c/lib/thumb/v7e-m+fp/hard\libg-musl.a(printf.o)
 .bss           0x00000000        0x0 c:/program files/microchip/xc32/v4.00/bin/bin/../../lib/gcc/pic32c/8.3.1/../../../../pic32c/lib/thumb/v7e-m+fp/hard\libg-musl.a(printf.o)
 .xc_stack_usage
                0x00000000       0x14 c:/program files/microchip/xc32/v4.00/bin/bin/../../lib/gcc/pic32c/8.3.1/../../../../pic32c/lib/thumb/v7e-m+fp/hard\libg-musl.a(printf.o)
 .xc_stack_usage.hdr
                0x00000000        0xe c:/program files/microchip/xc32/v4.00/bin/bin/../../lib/gcc/pic32c/8.3.1/../../../../pic32c/lib/thumb/v7e-m+fp/hard\libg-musl.a(printf.o)
 .text          0x00000000        0x0 c:/program files/microchip/xc32/v4.00/bin/bin/../../lib/gcc/pic32c/8.3.1/../../../../pic32c/lib/thumb/v7e-m+fp/hard\libg-musl.a(setbuf.o)
 .data          0x00000000        0x0 c:/program files/microchip/xc32/v4.00/bin/bin/../../lib/gcc/pic32c/8.3.1/../../../../pic32c/lib/thumb/v7e-m+fp/hard\libg-musl.a(setbuf.o)
 .bss           0x00000000        0x0 c:/program files/microchip/xc32/v4.00/bin/bin/../../lib/gcc/pic32c/8.3.1/../../../../pic32c/lib/thumb/v7e-m+fp/hard\libg-musl.a(setbuf.o)
 .xc_stack_usage
                0x00000000       0x14 c:/program files/microchip/xc32/v4.00/bin/bin/../../lib/gcc/pic32c/8.3.1/../../../../pic32c/lib/thumb/v7e-m+fp/hard\libg-musl.a(setbuf.o)
 .xc_stack_usage.hdr
                0x00000000        0xe c:/program files/microchip/xc32/v4.00/bin/bin/../../lib/gcc/pic32c/8.3.1/../../../../pic32c/lib/thumb/v7e-m+fp/hard\libg-musl.a(setbuf.o)
 .text          0x00000000        0x0 c:/program files/microchip/xc32/v4.00/bin/bin/../../lib/gcc/pic32c/8.3.1/../../../../pic32c/lib/thumb/v7e-m+fp/hard\libg-musl.a(memcpy.o)
 .data          0x00000000        0x0 c:/program files/microchip/xc32/v4.00/bin/bin/../../lib/gcc/pic32c/8.3.1/../../../../pic32c/lib/thumb/v7e-m+fp/hard\libg-musl.a(memcpy.o)
 .bss           0x00000000        0x0 c:/program files/microchip/xc32/v4.00/bin/bin/../../lib/gcc/pic32c/8.3.1/../../../../pic32c/lib/thumb/v7e-m+fp/hard\libg-musl.a(memcpy.o)
 .xc_stack_usage
                0x00000000       0x14 c:/program files/microchip/xc32/v4.00/bin/bin/../../lib/gcc/pic32c/8.3.1/../../../../pic32c/lib/thumb/v7e-m+fp/hard\libg-musl.a(memcpy.o)
 .xc_stack_usage.hdr
                0x00000000        0xe c:/program files/microchip/xc32/v4.00/bin/bin/../../lib/gcc/pic32c/8.3.1/../../../../pic32c/lib/thumb/v7e-m+fp/hard\libg-musl.a(memcpy.o)
 .text          0x00000000        0x0 c:/program files/microchip/xc32/v4.00/bin/bin/../../lib/gcc/pic32c/8.3.1/../../../../pic32c/lib/thumb/v7e-m+fp/hard\libg-musl.a(memset.o)
 .data          0x00000000        0x0 c:/program files/microchip/xc32/v4.00/bin/bin/../../lib/gcc/pic32c/8.3.1/../../../../pic32c/lib/thumb/v7e-m+fp/hard\libg-musl.a(memset.o)
 .bss           0x00000000        0x0 c:/program files/microchip/xc32/v4.00/bin/bin/../../lib/gcc/pic32c/8.3.1/../../../../pic32c/lib/thumb/v7e-m+fp/hard\libg-musl.a(memset.o)
 .xc_stack_usage
                0x00000000       0x14 c:/program files/microchip/xc32/v4.00/bin/bin/../../lib/gcc/pic32c/8.3.1/../../../../pic32c/lib/thumb/v7e-m+fp/hard\libg-musl.a(memset.o)
 .xc_stack_usage.hdr
                0x00000000        0xe c:/program files/microchip/xc32/v4.00/bin/bin/../../lib/gcc/pic32c/8.3.1/../../../../pic32c/lib/thumb/v7e-m+fp/hard\libg-musl.a(memset.o)
 .text          0x00000000        0x0 c:/program files/microchip/xc32/v4.00/bin/bin/../../lib/gcc/pic32c/8.3.1/../../../../pic32c/lib/thumb/v7e-m+fp/hard\libg-musl.a(strlen.o)
 .data          0x00000000        0x0 c:/program files/microchip/xc32/v4.00/bin/bin/../../lib/gcc/pic32c/8.3.1/../../../../pic32c/lib/thumb/v7e-m+fp/hard\libg-musl.a(strlen.o)
 .bss           0x00000000        0x0 c:/program files/microchip/xc32/v4.00/bin/bin/../../lib/gcc/pic32c/8.3.1/../../../../pic32c/lib/thumb/v7e-m+fp/hard\libg-musl.a(strlen.o)
 .xc_stack_usage
                0x00000000       0x14 c:/program files/microchip/xc32/v4.00/bin/bin/../../lib/gcc/pic32c/8.3.1/../../../../pic32c/lib/thumb/v7e-m+fp/hard\libg-musl.a(strlen.o)
 .xc_stack_usage.hdr
                0x00000000        0xe c:/program files/microchip/xc32/v4.00/bin/bin/../../lib/gcc/pic32c/8.3.1/../../../../pic32c/lib/thumb/v7e-m+fp/hard\libg-musl.a(strlen.o)
 .text          0x00000000        0x0 c:/program files/microchip/xc32/v4.00/bin/bin/../../lib/gcc/pic32c/8.3.1/../../../../pic32c/lib/thumb/v7e-m+fp/hard\libg-musl.a(strcmp.o)
 .data          0x00000000        0x0 c:/program files/microchip/xc32/v4.00/bin/bin/../../lib/gcc/pic32c/8.3.1/../../../../pic32c/lib/thumb/v7e-m+fp/hard\libg-musl.a(strcmp.o)
 .bss           0x00000000        0x0 c:/program files/microchip/xc32/v4.00/bin/bin/../../lib/gcc/pic32c/8.3.1/../../../../pic32c/lib/thumb/v7e-m+fp/hard\libg-musl.a(strcmp.o)
 .xc_stack_usage
                0x00000000       0x14 c:/program files/microchip/xc32/v4.00/bin/bin/../../lib/gcc/pic32c/8.3.1/../../../../pic32c/lib/thumb/v7e-m+fp/hard\libg-musl.a(strcmp.o)
 .xc_stack_usage.hdr
                0x00000000        0xe c:/program files/microchip/xc32/v4.00/bin/bin/../../lib/gcc/pic32c/8.3.1/../../../../pic32c/lib/thumb/v7e-m+fp/hard\libg-musl.a(strcmp.o)
 .text          0x00000000        0x0 c:/program files/microchip/xc32/v4.00/bin/bin/../../lib/gcc/pic32c/8.3.1/../../../../pic32c/lib/thumb/v7e-m+fp/hard\libg-musl.a(strcpy.o)
 .data          0x00000000        0x0 c:/program files/microchip/xc32/v4.00/bin/bin/../../lib/gcc/pic32c/8.3.1/../../../../pic32c/lib/thumb/v7e-m+fp/hard\libg-musl.a(strcpy.o)
 .bss           0x00000000        0x0 c:/program files/microchip/xc32/v4.00/bin/bin/../../lib/gcc/pic32c/8.3.1/../../../../pic32c/lib/thumb/v7e-m+fp/hard\libg-musl.a(strcpy.o)
 .xc_stack_usage
                0x00000000       0x14 c:/program files/microchip/xc32/v4.00/bin/bin/../../lib/gcc/pic32c/8.3.1/../../../../pic32c/lib/thumb/v7e-m+fp/hard\libg-musl.a(strcpy.o)
 .xc_stack_usage.hdr
                0x00000000        0xe c:/program files/microchip/xc32/v4.00/bin/bin/../../lib/gcc/pic32c/8.3.1/../../../../pic32c/lib/thumb/v7e-m+fp/hard\libg-musl.a(strcpy.o)
 .text          0x00000000        0x0 c:/program files/microchip/xc32/v4.00/bin/bin/../../lib/gcc/pic32c/8.3.1/../../../../pic32c/lib/thumb/v7e-m+fp/hard\libg-musl.a(strncmp.o)
 .data          0x00000000        0x0 c:/program files/microchip/xc32/v4.00/bin/bin/../../lib/gcc/pic32c/8.3.1/../../../../pic32c/lib/thumb/v7e-m+fp/hard\libg-musl.a(strncmp.o)
 .bss           0x00000000        0x0 c:/program files/microchip/xc32/v4.00/bin/bin/../../lib/gcc/pic32c/8.3.1/../../../../pic32c/lib/thumb/v7e-m+fp/hard\libg-musl.a(strncmp.o)
 .xc_stack_usage
                0x00000000       0x15 c:/program files/microchip/xc32/v4.00/bin/bin/../../lib/gcc/pic32c/8.3.1/../../../../pic32c/lib/thumb/v7e-m+fp/hard\libg-musl.a(strncmp.o)
 .xc_stack_usage.hdr
                0x00000000        0xe c:/program files/microchip/xc32/v4.00/bin/bin/../../lib/gcc/pic32c/8.3.1/../../../../pic32c/lib/thumb/v7e-m+fp/hard\libg-musl.a(strncmp.o)
 .text          0x00000000        0x0 c:/program files/microchip/xc32/v4.00/bin/bin/../../lib/gcc/pic32c/8.3.1/../../../../pic32c/lib/thumb/v7e-m+fp/hard\libg-musl.a(__environ.o)
 .data          0x00000000        0x0 c:/program files/microchip/xc32/v4.00/bin/bin/../../lib/gcc/pic32c/8.3.1/../../../../pic32c/lib/thumb/v7e-m+fp/hard\libg-musl.a(__environ.o)
 .xc_stack_usage.hdr
                0x00000000        0xe c:/program files/microchip/xc32/v4.00/bin/bin/../../lib/gcc/pic32c/8.3.1/../../../../pic32c/lib/thumb/v7e-m+fp/hard\libg-musl.a(__environ.o)
 .text          0x00000000        0x0 c:/program files/microchip/xc32/v4.00/bin/bin/../../lib/gcc/pic32c/8.3.1/../../../../pic32c/lib/thumb/v7e-m+fp/hard\libg-musl.a(__io_init_needed.o)
 .data          0x00000000        0x0 c:/program files/microchip/xc32/v4.00/bin/bin/../../lib/gcc/pic32c/8.3.1/../../../../pic32c/lib/thumb/v7e-m+fp/hard\libg-musl.a(__io_init_needed.o)
 .bss           0x00000000        0x0 c:/program files/microchip/xc32/v4.00/bin/bin/../../lib/gcc/pic32c/8.3.1/../../../../pic32c/lib/thumb/v7e-m+fp/hard\libg-musl.a(__io_init_needed.o)
 .xc_stack_usage
                0x00000000       0x40 c:/program files/microchip/xc32/v4.00/bin/bin/../../lib/gcc/pic32c/8.3.1/../../../../pic32c/lib/thumb/v7e-m+fp/hard\libg-musl.a(__io_init_needed.o)
 .xc_stack_usage.hdr
                0x00000000        0xe c:/program files/microchip/xc32/v4.00/bin/bin/../../lib/gcc/pic32c/8.3.1/../../../../pic32c/lib/thumb/v7e-m+fp/hard\libg-musl.a(__io_init_needed.o)
 .debug_info    0x00000000      0x8b5 c:/program files/microchip/xc32/v4.00/bin/bin/../../lib/gcc/pic32c/8.3.1/../../../../pic32c/lib/thumb/v7e-m+fp/hard\libg-musl.a(__io_init_needed.o)
 .debug_abbrev  0x00000000      0x117 c:/program files/microchip/xc32/v4.00/bin/bin/../../lib/gcc/pic32c/8.3.1/../../../../pic32c/lib/thumb/v7e-m+fp/hard\libg-musl.a(__io_init_needed.o)
 .debug_aranges
                0x00000000       0x28 c:/program files/microchip/xc32/v4.00/bin/bin/../../lib/gcc/pic32c/8.3.1/../../../../pic32c/lib/thumb/v7e-m+fp/hard\libg-musl.a(__io_init_needed.o)
 .debug_ranges  0x00000000       0x18 c:/program files/microchip/xc32/v4.00/bin/bin/../../lib/gcc/pic32c/8.3.1/../../../../pic32c/lib/thumb/v7e-m+fp/hard\libg-musl.a(__io_init_needed.o)
 .debug_line    0x00000000      0x1dc c:/program files/microchip/xc32/v4.00/bin/bin/../../lib/gcc/pic32c/8.3.1/../../../../pic32c/lib/thumb/v7e-m+fp/hard\libg-musl.a(__io_init_needed.o)
 .debug_str     0x00000000       0x25 c:/program files/microchip/xc32/v4.00/bin/bin/../../lib/gcc/pic32c/8.3.1/../../../../pic32c/lib/thumb/v7e-m+fp/hard\libg-musl.a(__io_init_needed.o)
 .comment       0x00000000       0x54 c:/program files/microchip/xc32/v4.00/bin/bin/../../lib/gcc/pic32c/8.3.1/../../../../pic32c/lib/thumb/v7e-m+fp/hard\libg-musl.a(__io_init_needed.o)
 .note.GNU-stack
                0x00000000        0x0 c:/program files/microchip/xc32/v4.00/bin/bin/../../lib/gcc/pic32c/8.3.1/../../../../pic32c/lib/thumb/v7e-m+fp/hard\libg-musl.a(__io_init_needed.o)
 .debug_frame   0x00000000       0x30 c:/program files/microchip/xc32/v4.00/bin/bin/../../lib/gcc/pic32c/8.3.1/../../../../pic32c/lib/thumb/v7e-m+fp/hard\libg-musl.a(__io_init_needed.o)
 .ARM.attributes
                0x00000000       0x36 c:/program files/microchip/xc32/v4.00/bin/bin/../../lib/gcc/pic32c/8.3.1/../../../../pic32c/lib/thumb/v7e-m+fp/hard\libg-musl.a(__io_init_needed.o)
 .text          0x00000000        0x0 c:/program files/microchip/xc32/v4.00/bin/bin/../../lib/gcc/pic32c/8.3.1/../../../../pic32c/lib/thumb/v7e-m+fp/hard\libg-musl.a(__io_rw_needed.o)
 .data          0x00000000        0x0 c:/program files/microchip/xc32/v4.00/bin/bin/../../lib/gcc/pic32c/8.3.1/../../../../pic32c/lib/thumb/v7e-m+fp/hard\libg-musl.a(__io_rw_needed.o)
 .bss           0x00000000        0x0 c:/program files/microchip/xc32/v4.00/bin/bin/../../lib/gcc/pic32c/8.3.1/../../../../pic32c/lib/thumb/v7e-m+fp/hard\libg-musl.a(__io_rw_needed.o)
 .xc_stack_usage
                0x00000000       0x1c c:/program files/microchip/xc32/v4.00/bin/bin/../../lib/gcc/pic32c/8.3.1/../../../../pic32c/lib/thumb/v7e-m+fp/hard\libg-musl.a(__io_rw_needed.o)
 .xc_stack_usage.hdr
                0x00000000        0xe c:/program files/microchip/xc32/v4.00/bin/bin/../../lib/gcc/pic32c/8.3.1/../../../../pic32c/lib/thumb/v7e-m+fp/hard\libg-musl.a(__io_rw_needed.o)
 .debug_info    0x00000000      0x8b4 c:/program files/microchip/xc32/v4.00/bin/bin/../../lib/gcc/pic32c/8.3.1/../../../../pic32c/lib/thumb/v7e-m+fp/hard\libg-musl.a(__io_rw_needed.o)
 .debug_abbrev  0x00000000      0x108 c:/program files/microchip/xc32/v4.00/bin/bin/../../lib/gcc/pic32c/8.3.1/../../../../pic32c/lib/thumb/v7e-m+fp/hard\libg-musl.a(__io_rw_needed.o)
 .debug_loc     0x00000000       0x2c c:/program files/microchip/xc32/v4.00/bin/bin/../../lib/gcc/pic32c/8.3.1/../../../../pic32c/lib/thumb/v7e-m+fp/hard\libg-musl.a(__io_rw_needed.o)
 .debug_aranges
                0x00000000       0x20 c:/program files/microchip/xc32/v4.00/bin/bin/../../lib/gcc/pic32c/8.3.1/../../../../pic32c/lib/thumb/v7e-m+fp/hard\libg-musl.a(__io_rw_needed.o)
 .debug_ranges  0x00000000       0x10 c:/program files/microchip/xc32/v4.00/bin/bin/../../lib/gcc/pic32c/8.3.1/../../../../pic32c/lib/thumb/v7e-m+fp/hard\libg-musl.a(__io_rw_needed.o)
 .debug_line    0x00000000      0x1e1 c:/program files/microchip/xc32/v4.00/bin/bin/../../lib/gcc/pic32c/8.3.1/../../../../pic32c/lib/thumb/v7e-m+fp/hard\libg-musl.a(__io_rw_needed.o)
 .debug_str     0x00000000       0x4d c:/program files/microchip/xc32/v4.00/bin/bin/../../lib/gcc/pic32c/8.3.1/../../../../pic32c/lib/thumb/v7e-m+fp/hard\libg-musl.a(__io_rw_needed.o)
 .comment       0x00000000       0x54 c:/program files/microchip/xc32/v4.00/bin/bin/../../lib/gcc/pic32c/8.3.1/../../../../pic32c/lib/thumb/v7e-m+fp/hard\libg-musl.a(__io_rw_needed.o)
 .note.GNU-stack
                0x00000000        0x0 c:/program files/microchip/xc32/v4.00/bin/bin/../../lib/gcc/pic32c/8.3.1/../../../../pic32c/lib/thumb/v7e-m+fp/hard\libg-musl.a(__io_rw_needed.o)
 .debug_frame   0x00000000       0x2c c:/program files/microchip/xc32/v4.00/bin/bin/../../lib/gcc/pic32c/8.3.1/../../../../pic32c/lib/thumb/v7e-m+fp/hard\libg-musl.a(__io_rw_needed.o)
 .ARM.attributes
                0x00000000       0x36 c:/program files/microchip/xc32/v4.00/bin/bin/../../lib/gcc/pic32c/8.3.1/../../../../pic32c/lib/thumb/v7e-m+fp/hard\libg-musl.a(__io_rw_needed.o)
 .text          0x00000000        0x0 c:/program files/microchip/xc32/v4.00/bin/bin/../../lib/gcc/pic32c/8.3.1/../../../../pic32c/lib/thumb/v7e-m+fp/hard\libg-musl.a(__stdio_read.o)
 .data          0x00000000        0x0 c:/program files/microchip/xc32/v4.00/bin/bin/../../lib/gcc/pic32c/8.3.1/../../../../pic32c/lib/thumb/v7e-m+fp/hard\libg-musl.a(__stdio_read.o)
 .bss           0x00000000        0x0 c:/program files/microchip/xc32/v4.00/bin/bin/../../lib/gcc/pic32c/8.3.1/../../../../pic32c/lib/thumb/v7e-m+fp/hard\libg-musl.a(__stdio_read.o)
 .xc_stack_usage
                0x00000000       0x1a c:/program files/microchip/xc32/v4.00/bin/bin/../../lib/gcc/pic32c/8.3.1/../../../../pic32c/lib/thumb/v7e-m+fp/hard\libg-musl.a(__stdio_read.o)
 .xc_stack_usage.hdr
                0x00000000        0xe c:/program files/microchip/xc32/v4.00/bin/bin/../../lib/gcc/pic32c/8.3.1/../../../../pic32c/lib/thumb/v7e-m+fp/hard\libg-musl.a(__stdio_read.o)
 .text          0x00000000        0x0 c:/program files/microchip/xc32/v4.00/bin/bin/../../lib/gcc/pic32c/8.3.1/../../../../pic32c/lib/thumb/v7e-m+fp/hard\libg-musl.a(__towrite_rw.o)
 .data          0x00000000        0x0 c:/program files/microchip/xc32/v4.00/bin/bin/../../lib/gcc/pic32c/8.3.1/../../../../pic32c/lib/thumb/v7e-m+fp/hard\libg-musl.a(__towrite_rw.o)
 .bss           0x00000000        0x0 c:/program files/microchip/xc32/v4.00/bin/bin/../../lib/gcc/pic32c/8.3.1/../../../../pic32c/lib/thumb/v7e-m+fp/hard\libg-musl.a(__towrite_rw.o)
 .xc_stack_usage
                0x00000000       0x1a c:/program files/microchip/xc32/v4.00/bin/bin/../../lib/gcc/pic32c/8.3.1/../../../../pic32c/lib/thumb/v7e-m+fp/hard\libg-musl.a(__towrite_rw.o)
 .xc_stack_usage.hdr
                0x00000000        0xe c:/program files/microchip/xc32/v4.00/bin/bin/../../lib/gcc/pic32c/8.3.1/../../../../pic32c/lib/thumb/v7e-m+fp/hard\libg-musl.a(__towrite_rw.o)
 .text          0x00000000        0x0 c:/program files/microchip/xc32/v4.00/bin/bin/../../lib/gcc/pic32c/8.3.1/../../../../pic32c/lib/thumb/v7e-m+fp/hard\libg-musl.a(setvbuf.o)
 .data          0x00000000        0x0 c:/program files/microchip/xc32/v4.00/bin/bin/../../lib/gcc/pic32c/8.3.1/../../../../pic32c/lib/thumb/v7e-m+fp/hard\libg-musl.a(setvbuf.o)
 .bss           0x00000000        0x0 c:/program files/microchip/xc32/v4.00/bin/bin/../../lib/gcc/pic32c/8.3.1/../../../../pic32c/lib/thumb/v7e-m+fp/hard\libg-musl.a(setvbuf.o)
 .xc_stack_usage
                0x00000000       0x36 c:/program files/microchip/xc32/v4.00/bin/bin/../../lib/gcc/pic32c/8.3.1/../../../../pic32c/lib/thumb/v7e-m+fp/hard\libg-musl.a(setvbuf.o)
 .xc_stack_usage.hdr
                0x00000000        0xe c:/program files/microchip/xc32/v4.00/bin/bin/../../lib/gcc/pic32c/8.3.1/../../../../pic32c/lib/thumb/v7e-m+fp/hard\libg-musl.a(setvbuf.o)
 .text          0x00000000        0x0 c:/program files/microchip/xc32/v4.00/bin/bin/../../lib/gcc/pic32c/8.3.1/../../../../pic32c/lib/thumb/v7e-m+fp/hard\libg-musl.a(vfprintf.o)
 .data          0x00000000        0x0 c:/program files/microchip/xc32/v4.00/bin/bin/../../lib/gcc/pic32c/8.3.1/../../../../pic32c/lib/thumb/v7e-m+fp/hard\libg-musl.a(vfprintf.o)
 .bss           0x00000000        0x0 c:/program files/microchip/xc32/v4.00/bin/bin/../../lib/gcc/pic32c/8.3.1/../../../../pic32c/lib/thumb/v7e-m+fp/hard\libg-musl.a(vfprintf.o)
 .xc_stack_usage
                0x00000000       0x38 c:/program files/microchip/xc32/v4.00/bin/bin/../../lib/gcc/pic32c/8.3.1/../../../../pic32c/lib/thumb/v7e-m+fp/hard\libg-musl.a(vfprintf.o)
 .xc_stack_usage.hdr
                0x00000000        0xe c:/program files/microchip/xc32/v4.00/bin/bin/../../lib/gcc/pic32c/8.3.1/../../../../pic32c/lib/thumb/v7e-m+fp/hard\libg-musl.a(vfprintf.o)
 .text          0x00000000        0x0 c:/program files/microchip/xc32/v4.00/bin/bin/../../lib/gcc/pic32c/8.3.1/../../../../pic32c/lib/thumb/v7e-m+fp/hard\libg-musl.a(stpcpy.o)
 .data          0x00000000        0x0 c:/program files/microchip/xc32/v4.00/bin/bin/../../lib/gcc/pic32c/8.3.1/../../../../pic32c/lib/thumb/v7e-m+fp/hard\libg-musl.a(stpcpy.o)
 .bss           0x00000000        0x0 c:/program files/microchip/xc32/v4.00/bin/bin/../../lib/gcc/pic32c/8.3.1/../../../../pic32c/lib/thumb/v7e-m+fp/hard\libg-musl.a(stpcpy.o)
 .xc_stack_usage
                0x00000000       0x14 c:/program files/microchip/xc32/v4.00/bin/bin/../../lib/gcc/pic32c/8.3.1/../../../../pic32c/lib/thumb/v7e-m+fp/hard\libg-musl.a(stpcpy.o)
 .xc_stack_usage.hdr
                0x00000000        0xe c:/program files/microchip/xc32/v4.00/bin/bin/../../lib/gcc/pic32c/8.3.1/../../../../pic32c/lib/thumb/v7e-m+fp/hard\libg-musl.a(stpcpy.o)
 .text          0x00000000        0x0 c:/program files/microchip/xc32/v4.00/bin/bin/../../lib/gcc/pic32c/8.3.1/../../../../pic32c/lib/thumb/v7e-m+fp/hard\libg-musl.a(readv.o)
 .data          0x00000000        0x0 c:/program files/microchip/xc32/v4.00/bin/bin/../../lib/gcc/pic32c/8.3.1/../../../../pic32c/lib/thumb/v7e-m+fp/hard\libg-musl.a(readv.o)
 .bss           0x00000000        0x0 c:/program files/microchip/xc32/v4.00/bin/bin/../../lib/gcc/pic32c/8.3.1/../../../../pic32c/lib/thumb/v7e-m+fp/hard\libg-musl.a(readv.o)
 .xc_stack_usage
                0x00000000       0x15 c:/program files/microchip/xc32/v4.00/bin/bin/../../lib/gcc/pic32c/8.3.1/../../../../pic32c/lib/thumb/v7e-m+fp/hard\libg-musl.a(readv.o)
 .xc_stack_usage.hdr
                0x00000000        0xe c:/program files/microchip/xc32/v4.00/bin/bin/../../lib/gcc/pic32c/8.3.1/../../../../pic32c/lib/thumb/v7e-m+fp/hard\libg-musl.a(readv.o)
 .text          0x00000000        0x0 c:/program files/microchip/xc32/v4.00/bin/bin/../../lib/gcc/pic32c/8.3.1/../../../../pic32c/lib/thumb/v7e-m+fp/hard\libg-musl.a(malloc.o)
 .data          0x00000000        0x0 c:/program files/microchip/xc32/v4.00/bin/bin/../../lib/gcc/pic32c/8.3.1/../../../../pic32c/lib/thumb/v7e-m+fp/hard\libg-musl.a(malloc.o)
 .xc_stack_usage
                0x00000000       0xeb c:/program files/microchip/xc32/v4.00/bin/bin/../../lib/gcc/pic32c/8.3.1/../../../../pic32c/lib/thumb/v7e-m+fp/hard\libg-musl.a(malloc.o)
 .text.__malloc0
                0x00000000       0x26 c:/program files/microchip/xc32/v4.00/bin/bin/../../lib/gcc/pic32c/8.3.1/../../../../pic32c/lib/thumb/v7e-m+fp/hard\libg-musl.a(malloc.o)
 .text.realloc  0x00000000       0x90 c:/program files/microchip/xc32/v4.00/bin/bin/../../lib/gcc/pic32c/8.3.1/../../../../pic32c/lib/thumb/v7e-m+fp/hard\libg-musl.a(malloc.o)
 .xc_stack_usage.hdr
                0x00000000        0xe c:/program files/microchip/xc32/v4.00/bin/bin/../../lib/gcc/pic32c/8.3.1/../../../../pic32c/lib/thumb/v7e-m+fp/hard\libg-musl.a(malloc.o)
 .text          0x00000000        0x0 c:/program files/microchip/xc32/v4.00/bin/bin/../../lib/gcc/pic32c/8.3.1/../../../../pic32c/lib/thumb/v7e-m+fp/hard\libg-musl.a(expand_heap.o)
 .data          0x00000000        0x0 c:/program files/microchip/xc32/v4.00/bin/bin/../../lib/gcc/pic32c/8.3.1/../../../../pic32c/lib/thumb/v7e-m+fp/hard\libg-musl.a(expand_heap.o)
 .bss           0x00000000        0x0 c:/program files/microchip/xc32/v4.00/bin/bin/../../lib/gcc/pic32c/8.3.1/../../../../pic32c/lib/thumb/v7e-m+fp/hard\libg-musl.a(expand_heap.o)
 .xc_stack_usage
                0x00000000       0x1b c:/program files/microchip/xc32/v4.00/bin/bin/../../lib/gcc/pic32c/8.3.1/../../../../pic32c/lib/thumb/v7e-m+fp/hard\libg-musl.a(expand_heap.o)
 .xc_stack_usage.hdr
                0x00000000        0xe c:/program files/microchip/xc32/v4.00/bin/bin/../../lib/gcc/pic32c/8.3.1/../../../../pic32c/lib/thumb/v7e-m+fp/hard\libg-musl.a(expand_heap.o)
 .text          0x00000000        0x0 c:/program files/microchip/xc32/v4.00/bin/bin/../../lib/gcc/pic32c/8.3.1/../../../../pic32c/lib/thumb/v7e-m+fp/hard\libg-musl.a(__fopen_rw.o)
 .data          0x00000000        0x0 c:/program files/microchip/xc32/v4.00/bin/bin/../../lib/gcc/pic32c/8.3.1/../../../../pic32c/lib/thumb/v7e-m+fp/hard\libg-musl.a(__fopen_rw.o)
 .bss           0x00000000        0x0 c:/program files/microchip/xc32/v4.00/bin/bin/../../lib/gcc/pic32c/8.3.1/../../../../pic32c/lib/thumb/v7e-m+fp/hard\libg-musl.a(__fopen_rw.o)
 .xc_stack_usage
                0x00000000       0x18 c:/program files/microchip/xc32/v4.00/bin/bin/../../lib/gcc/pic32c/8.3.1/../../../../pic32c/lib/thumb/v7e-m+fp/hard\libg-musl.a(__fopen_rw.o)
 .text.__fopen_rw
                0x00000000       0x4c c:/program files/microchip/xc32/v4.00/bin/bin/../../lib/gcc/pic32c/8.3.1/../../../../pic32c/lib/thumb/v7e-m+fp/hard\libg-musl.a(__fopen_rw.o)
 .xc_stack_usage.hdr
                0x00000000        0xe c:/program files/microchip/xc32/v4.00/bin/bin/../../lib/gcc/pic32c/8.3.1/../../../../pic32c/lib/thumb/v7e-m+fp/hard\libg-musl.a(__fopen_rw.o)
 .debug_info    0x00000000      0x97a c:/program files/microchip/xc32/v4.00/bin/bin/../../lib/gcc/pic32c/8.3.1/../../../../pic32c/lib/thumb/v7e-m+fp/hard\libg-musl.a(__fopen_rw.o)
 .debug_abbrev  0x00000000      0x123 c:/program files/microchip/xc32/v4.00/bin/bin/../../lib/gcc/pic32c/8.3.1/../../../../pic32c/lib/thumb/v7e-m+fp/hard\libg-musl.a(__fopen_rw.o)
 .debug_loc     0x00000000       0x4f c:/program files/microchip/xc32/v4.00/bin/bin/../../lib/gcc/pic32c/8.3.1/../../../../pic32c/lib/thumb/v7e-m+fp/hard\libg-musl.a(__fopen_rw.o)
 .debug_aranges
                0x00000000       0x20 c:/program files/microchip/xc32/v4.00/bin/bin/../../lib/gcc/pic32c/8.3.1/../../../../pic32c/lib/thumb/v7e-m+fp/hard\libg-musl.a(__fopen_rw.o)
 .debug_ranges  0x00000000       0x10 c:/program files/microchip/xc32/v4.00/bin/bin/../../lib/gcc/pic32c/8.3.1/../../../../pic32c/lib/thumb/v7e-m+fp/hard\libg-musl.a(__fopen_rw.o)
 .debug_line    0x00000000      0x2bb c:/program files/microchip/xc32/v4.00/bin/bin/../../lib/gcc/pic32c/8.3.1/../../../../pic32c/lib/thumb/v7e-m+fp/hard\libg-musl.a(__fopen_rw.o)
 .debug_str     0x00000000        0x0 c:/program files/microchip/xc32/v4.00/bin/bin/../../lib/gcc/pic32c/8.3.1/../../../../pic32c/lib/thumb/v7e-m+fp/hard\libg-musl.a(__fopen_rw.o)
 .comment       0x00000000       0x54 c:/program files/microchip/xc32/v4.00/bin/bin/../../lib/gcc/pic32c/8.3.1/../../../../pic32c/lib/thumb/v7e-m+fp/hard\libg-musl.a(__fopen_rw.o)
 .note.GNU-stack
                0x00000000        0x0 c:/program files/microchip/xc32/v4.00/bin/bin/../../lib/gcc/pic32c/8.3.1/../../../../pic32c/lib/thumb/v7e-m+fp/hard\libg-musl.a(__fopen_rw.o)
 .debug_frame   0x00000000       0x28 c:/program files/microchip/xc32/v4.00/bin/bin/../../lib/gcc/pic32c/8.3.1/../../../../pic32c/lib/thumb/v7e-m+fp/hard\libg-musl.a(__fopen_rw.o)
 .ARM.attributes
                0x00000000       0x36 c:/program files/microchip/xc32/v4.00/bin/bin/../../lib/gcc/pic32c/8.3.1/../../../../pic32c/lib/thumb/v7e-m+fp/hard\libg-musl.a(__fopen_rw.o)
 .text          0x00000000        0x0 c:/program files/microchip/xc32/v4.00/bin/bin/../../lib/gcc/pic32c/8.3.1/../../../../pic32c/lib/thumb/v7e-m+fp/hard\libg-musl.a(__ftello_rw.o)
 .data          0x00000000        0x0 c:/program files/microchip/xc32/v4.00/bin/bin/../../lib/gcc/pic32c/8.3.1/../../../../pic32c/lib/thumb/v7e-m+fp/hard\libg-musl.a(__ftello_rw.o)
 .bss           0x00000000        0x0 c:/program files/microchip/xc32/v4.00/bin/bin/../../lib/gcc/pic32c/8.3.1/../../../../pic32c/lib/thumb/v7e-m+fp/hard\libg-musl.a(__ftello_rw.o)
 .xc_stack_usage
                0x00000000       0x1d c:/program files/microchip/xc32/v4.00/bin/bin/../../lib/gcc/pic32c/8.3.1/../../../../pic32c/lib/thumb/v7e-m+fp/hard\libg-musl.a(__ftello_rw.o)
 .text.__ftello_adj_rw
                0x00000000       0x30 c:/program files/microchip/xc32/v4.00/bin/bin/../../lib/gcc/pic32c/8.3.1/../../../../pic32c/lib/thumb/v7e-m+fp/hard\libg-musl.a(__ftello_rw.o)
 .xc_stack_usage.hdr
                0x00000000        0xe c:/program files/microchip/xc32/v4.00/bin/bin/../../lib/gcc/pic32c/8.3.1/../../../../pic32c/lib/thumb/v7e-m+fp/hard\libg-musl.a(__ftello_rw.o)
 .debug_info    0x00000000      0x8d9 c:/program files/microchip/xc32/v4.00/bin/bin/../../lib/gcc/pic32c/8.3.1/../../../../pic32c/lib/thumb/v7e-m+fp/hard\libg-musl.a(__ftello_rw.o)
 .debug_abbrev  0x00000000      0x102 c:/program files/microchip/xc32/v4.00/bin/bin/../../lib/gcc/pic32c/8.3.1/../../../../pic32c/lib/thumb/v7e-m+fp/hard\libg-musl.a(__ftello_rw.o)
 .debug_loc     0x00000000       0x45 c:/program files/microchip/xc32/v4.00/bin/bin/../../lib/gcc/pic32c/8.3.1/../../../../pic32c/lib/thumb/v7e-m+fp/hard\libg-musl.a(__ftello_rw.o)
 .debug_aranges
                0x00000000       0x20 c:/program files/microchip/xc32/v4.00/bin/bin/../../lib/gcc/pic32c/8.3.1/../../../../pic32c/lib/thumb/v7e-m+fp/hard\libg-musl.a(__ftello_rw.o)
 .debug_ranges  0x00000000       0x10 c:/program files/microchip/xc32/v4.00/bin/bin/../../lib/gcc/pic32c/8.3.1/../../../../pic32c/lib/thumb/v7e-m+fp/hard\libg-musl.a(__ftello_rw.o)
 .debug_line    0x00000000      0x276 c:/program files/microchip/xc32/v4.00/bin/bin/../../lib/gcc/pic32c/8.3.1/../../../../pic32c/lib/thumb/v7e-m+fp/hard\libg-musl.a(__ftello_rw.o)
 .debug_str     0x00000000        0x0 c:/program files/microchip/xc32/v4.00/bin/bin/../../lib/gcc/pic32c/8.3.1/../../../../pic32c/lib/thumb/v7e-m+fp/hard\libg-musl.a(__ftello_rw.o)
 .comment       0x00000000       0x54 c:/program files/microchip/xc32/v4.00/bin/bin/../../lib/gcc/pic32c/8.3.1/../../../../pic32c/lib/thumb/v7e-m+fp/hard\libg-musl.a(__ftello_rw.o)
 .note.GNU-stack
                0x00000000        0x0 c:/program files/microchip/xc32/v4.00/bin/bin/../../lib/gcc/pic32c/8.3.1/../../../../pic32c/lib/thumb/v7e-m+fp/hard\libg-musl.a(__ftello_rw.o)
 .debug_frame   0x00000000       0x30 c:/program files/microchip/xc32/v4.00/bin/bin/../../lib/gcc/pic32c/8.3.1/../../../../pic32c/lib/thumb/v7e-m+fp/hard\libg-musl.a(__ftello_rw.o)
 .ARM.attributes
                0x00000000       0x36 c:/program files/microchip/xc32/v4.00/bin/bin/../../lib/gcc/pic32c/8.3.1/../../../../pic32c/lib/thumb/v7e-m+fp/hard\libg-musl.a(__ftello_rw.o)
 .text          0x00000000        0x0 c:/program files/microchip/xc32/v4.00/bin/bin/../../lib/gcc/pic32c/8.3.1/../../../../pic32c/lib/thumb/v7e-m+fp/hard\libg-musl.a(__init_stdio.o)
 .data          0x00000000        0x0 c:/program files/microchip/xc32/v4.00/bin/bin/../../lib/gcc/pic32c/8.3.1/../../../../pic32c/lib/thumb/v7e-m+fp/hard\libg-musl.a(__init_stdio.o)
 .bss           0x00000000        0x0 c:/program files/microchip/xc32/v4.00/bin/bin/../../lib/gcc/pic32c/8.3.1/../../../../pic32c/lib/thumb/v7e-m+fp/hard\libg-musl.a(__init_stdio.o)
 .xc_stack_usage
                0x00000000       0x2f c:/program files/microchip/xc32/v4.00/bin/bin/../../lib/gcc/pic32c/8.3.1/../../../../pic32c/lib/thumb/v7e-m+fp/hard\libg-musl.a(__init_stdio.o)
 .xc_stack_usage.hdr
                0x00000000        0xe c:/program files/microchip/xc32/v4.00/bin/bin/../../lib/gcc/pic32c/8.3.1/../../../../pic32c/lib/thumb/v7e-m+fp/hard\libg-musl.a(__init_stdio.o)
 .text          0x00000000        0x0 c:/program files/microchip/xc32/v4.00/bin/bin/../../lib/gcc/pic32c/8.3.1/../../../../pic32c/lib/thumb/v7e-m+fp/hard\libg-musl.a(__io_buf_needed.o)
 .data          0x00000000        0x0 c:/program files/microchip/xc32/v4.00/bin/bin/../../lib/gcc/pic32c/8.3.1/../../../../pic32c/lib/thumb/v7e-m+fp/hard\libg-musl.a(__io_buf_needed.o)
 .bss           0x00000000        0x0 c:/program files/microchip/xc32/v4.00/bin/bin/../../lib/gcc/pic32c/8.3.1/../../../../pic32c/lib/thumb/v7e-m+fp/hard\libg-musl.a(__io_buf_needed.o)
 .xc_stack_usage
                0x00000000       0x1d c:/program files/microchip/xc32/v4.00/bin/bin/../../lib/gcc/pic32c/8.3.1/../../../../pic32c/lib/thumb/v7e-m+fp/hard\libg-musl.a(__io_buf_needed.o)
 .xc_stack_usage.hdr
                0x00000000        0xe c:/program files/microchip/xc32/v4.00/bin/bin/../../lib/gcc/pic32c/8.3.1/../../../../pic32c/lib/thumb/v7e-m+fp/hard\libg-musl.a(__io_buf_needed.o)
 .debug_info    0x00000000      0x8fb c:/program files/microchip/xc32/v4.00/bin/bin/../../lib/gcc/pic32c/8.3.1/../../../../pic32c/lib/thumb/v7e-m+fp/hard\libg-musl.a(__io_buf_needed.o)
 .debug_abbrev  0x00000000      0x108 c:/program files/microchip/xc32/v4.00/bin/bin/../../lib/gcc/pic32c/8.3.1/../../../../pic32c/lib/thumb/v7e-m+fp/hard\libg-musl.a(__io_buf_needed.o)
 .debug_loc     0x00000000       0x2c c:/program files/microchip/xc32/v4.00/bin/bin/../../lib/gcc/pic32c/8.3.1/../../../../pic32c/lib/thumb/v7e-m+fp/hard\libg-musl.a(__io_buf_needed.o)
 .debug_aranges
                0x00000000       0x20 c:/program files/microchip/xc32/v4.00/bin/bin/../../lib/gcc/pic32c/8.3.1/../../../../pic32c/lib/thumb/v7e-m+fp/hard\libg-musl.a(__io_buf_needed.o)
 .debug_ranges  0x00000000       0x10 c:/program files/microchip/xc32/v4.00/bin/bin/../../lib/gcc/pic32c/8.3.1/../../../../pic32c/lib/thumb/v7e-m+fp/hard\libg-musl.a(__io_buf_needed.o)
 .debug_line    0x00000000      0x1e5 c:/program files/microchip/xc32/v4.00/bin/bin/../../lib/gcc/pic32c/8.3.1/../../../../pic32c/lib/thumb/v7e-m+fp/hard\libg-musl.a(__io_buf_needed.o)
 .debug_str     0x00000000       0x77 c:/program files/microchip/xc32/v4.00/bin/bin/../../lib/gcc/pic32c/8.3.1/../../../../pic32c/lib/thumb/v7e-m+fp/hard\libg-musl.a(__io_buf_needed.o)
 .comment       0x00000000       0x54 c:/program files/microchip/xc32/v4.00/bin/bin/../../lib/gcc/pic32c/8.3.1/../../../../pic32c/lib/thumb/v7e-m+fp/hard\libg-musl.a(__io_buf_needed.o)
 .note.GNU-stack
                0x00000000        0x0 c:/program files/microchip/xc32/v4.00/bin/bin/../../lib/gcc/pic32c/8.3.1/../../../../pic32c/lib/thumb/v7e-m+fp/hard\libg-musl.a(__io_buf_needed.o)
 .debug_frame   0x00000000       0x2c c:/program files/microchip/xc32/v4.00/bin/bin/../../lib/gcc/pic32c/8.3.1/../../../../pic32c/lib/thumb/v7e-m+fp/hard\libg-musl.a(__io_buf_needed.o)
 .ARM.attributes
                0x00000000       0x36 c:/program files/microchip/xc32/v4.00/bin/bin/../../lib/gcc/pic32c/8.3.1/../../../../pic32c/lib/thumb/v7e-m+fp/hard\libg-musl.a(__io_buf_needed.o)
 .text          0x00000000        0x0 c:/program files/microchip/xc32/v4.00/bin/bin/../../lib/gcc/pic32c/8.3.1/../../../../pic32c/lib/thumb/v7e-m+fp/hard\libg-musl.a(__io_file_needed.o)
 .data          0x00000000        0x0 c:/program files/microchip/xc32/v4.00/bin/bin/../../lib/gcc/pic32c/8.3.1/../../../../pic32c/lib/thumb/v7e-m+fp/hard\libg-musl.a(__io_file_needed.o)
 .bss           0x00000000        0x0 c:/program files/microchip/xc32/v4.00/bin/bin/../../lib/gcc/pic32c/8.3.1/../../../../pic32c/lib/thumb/v7e-m+fp/hard\libg-musl.a(__io_file_needed.o)
 .xc_stack_usage
                0x00000000       0x1e c:/program files/microchip/xc32/v4.00/bin/bin/../../lib/gcc/pic32c/8.3.1/../../../../pic32c/lib/thumb/v7e-m+fp/hard\libg-musl.a(__io_file_needed.o)
 .xc_stack_usage.hdr
                0x00000000        0xe c:/program files/microchip/xc32/v4.00/bin/bin/../../lib/gcc/pic32c/8.3.1/../../../../pic32c/lib/thumb/v7e-m+fp/hard\libg-musl.a(__io_file_needed.o)
 .debug_info    0x00000000      0x872 c:/program files/microchip/xc32/v4.00/bin/bin/../../lib/gcc/pic32c/8.3.1/../../../../pic32c/lib/thumb/v7e-m+fp/hard\libg-musl.a(__io_file_needed.o)
 .debug_abbrev  0x00000000       0xfd c:/program files/microchip/xc32/v4.00/bin/bin/../../lib/gcc/pic32c/8.3.1/../../../../pic32c/lib/thumb/v7e-m+fp/hard\libg-musl.a(__io_file_needed.o)
 .debug_aranges
                0x00000000       0x20 c:/program files/microchip/xc32/v4.00/bin/bin/../../lib/gcc/pic32c/8.3.1/../../../../pic32c/lib/thumb/v7e-m+fp/hard\libg-musl.a(__io_file_needed.o)
 .debug_ranges  0x00000000       0x10 c:/program files/microchip/xc32/v4.00/bin/bin/../../lib/gcc/pic32c/8.3.1/../../../../pic32c/lib/thumb/v7e-m+fp/hard\libg-musl.a(__io_file_needed.o)
 .debug_line    0x00000000      0x1cf c:/program files/microchip/xc32/v4.00/bin/bin/../../lib/gcc/pic32c/8.3.1/../../../../pic32c/lib/thumb/v7e-m+fp/hard\libg-musl.a(__io_file_needed.o)
 .debug_str     0x00000000        0xd c:/program files/microchip/xc32/v4.00/bin/bin/../../lib/gcc/pic32c/8.3.1/../../../../pic32c/lib/thumb/v7e-m+fp/hard\libg-musl.a(__io_file_needed.o)
 .comment       0x00000000       0x54 c:/program files/microchip/xc32/v4.00/bin/bin/../../lib/gcc/pic32c/8.3.1/../../../../pic32c/lib/thumb/v7e-m+fp/hard\libg-musl.a(__io_file_needed.o)
 .note.GNU-stack
                0x00000000        0x0 c:/program files/microchip/xc32/v4.00/bin/bin/../../lib/gcc/pic32c/8.3.1/../../../../pic32c/lib/thumb/v7e-m+fp/hard\libg-musl.a(__io_file_needed.o)
 .debug_frame   0x00000000       0x20 c:/program files/microchip/xc32/v4.00/bin/bin/../../lib/gcc/pic32c/8.3.1/../../../../pic32c/lib/thumb/v7e-m+fp/hard\libg-musl.a(__io_file_needed.o)
 .ARM.attributes
                0x00000000       0x36 c:/program files/microchip/xc32/v4.00/bin/bin/../../lib/gcc/pic32c/8.3.1/../../../../pic32c/lib/thumb/v7e-m+fp/hard\libg-musl.a(__io_file_needed.o)
 .text          0x00000000        0x0 c:/program files/microchip/xc32/v4.00/bin/bin/../../lib/gcc/pic32c/8.3.1/../../../../pic32c/lib/thumb/v7e-m+fp/hard\libg-musl.a(__io_fmt_needed.o)
 .data          0x00000000        0x0 c:/program files/microchip/xc32/v4.00/bin/bin/../../lib/gcc/pic32c/8.3.1/../../../../pic32c/lib/thumb/v7e-m+fp/hard\libg-musl.a(__io_fmt_needed.o)
 .bss           0x00000000        0x0 c:/program files/microchip/xc32/v4.00/bin/bin/../../lib/gcc/pic32c/8.3.1/../../../../pic32c/lib/thumb/v7e-m+fp/hard\libg-musl.a(__io_fmt_needed.o)
 .xc_stack_usage
                0x00000000       0x1d c:/program files/microchip/xc32/v4.00/bin/bin/../../lib/gcc/pic32c/8.3.1/../../../../pic32c/lib/thumb/v7e-m+fp/hard\libg-musl.a(__io_fmt_needed.o)
 .xc_stack_usage.hdr
                0x00000000        0xe c:/program files/microchip/xc32/v4.00/bin/bin/../../lib/gcc/pic32c/8.3.1/../../../../pic32c/lib/thumb/v7e-m+fp/hard\libg-musl.a(__io_fmt_needed.o)
 .debug_info    0x00000000      0x8fb c:/program files/microchip/xc32/v4.00/bin/bin/../../lib/gcc/pic32c/8.3.1/../../../../pic32c/lib/thumb/v7e-m+fp/hard\libg-musl.a(__io_fmt_needed.o)
 .debug_abbrev  0x00000000      0x108 c:/program files/microchip/xc32/v4.00/bin/bin/../../lib/gcc/pic32c/8.3.1/../../../../pic32c/lib/thumb/v7e-m+fp/hard\libg-musl.a(__io_fmt_needed.o)
 .debug_loc     0x00000000       0x2c c:/program files/microchip/xc32/v4.00/bin/bin/../../lib/gcc/pic32c/8.3.1/../../../../pic32c/lib/thumb/v7e-m+fp/hard\libg-musl.a(__io_fmt_needed.o)
 .debug_aranges
                0x00000000       0x20 c:/program files/microchip/xc32/v4.00/bin/bin/../../lib/gcc/pic32c/8.3.1/../../../../pic32c/lib/thumb/v7e-m+fp/hard\libg-musl.a(__io_fmt_needed.o)
 .debug_ranges  0x00000000       0x10 c:/program files/microchip/xc32/v4.00/bin/bin/../../lib/gcc/pic32c/8.3.1/../../../../pic32c/lib/thumb/v7e-m+fp/hard\libg-musl.a(__io_fmt_needed.o)
 .debug_line    0x00000000      0x1e5 c:/program files/microchip/xc32/v4.00/bin/bin/../../lib/gcc/pic32c/8.3.1/../../../../pic32c/lib/thumb/v7e-m+fp/hard\libg-musl.a(__io_fmt_needed.o)
 .debug_str     0x00000000       0x69 c:/program files/microchip/xc32/v4.00/bin/bin/../../lib/gcc/pic32c/8.3.1/../../../../pic32c/lib/thumb/v7e-m+fp/hard\libg-musl.a(__io_fmt_needed.o)
 .comment       0x00000000       0x54 c:/program files/microchip/xc32/v4.00/bin/bin/../../lib/gcc/pic32c/8.3.1/../../../../pic32c/lib/thumb/v7e-m+fp/hard\libg-musl.a(__io_fmt_needed.o)
 .note.GNU-stack
                0x00000000        0x0 c:/program files/microchip/xc32/v4.00/bin/bin/../../lib/gcc/pic32c/8.3.1/../../../../pic32c/lib/thumb/v7e-m+fp/hard\libg-musl.a(__io_fmt_needed.o)
 .debug_frame   0x00000000       0x2c c:/program files/microchip/xc32/v4.00/bin/bin/../../lib/gcc/pic32c/8.3.1/../../../../pic32c/lib/thumb/v7e-m+fp/hard\libg-musl.a(__io_fmt_needed.o)
 .ARM.attributes
                0x00000000       0x36 c:/program files/microchip/xc32/v4.00/bin/bin/../../lib/gcc/pic32c/8.3.1/../../../../pic32c/lib/thumb/v7e-m+fp/hard\libg-musl.a(__io_fmt_needed.o)
 .text          0x00000000        0x0 c:/program files/microchip/xc32/v4.00/bin/bin/../../lib/gcc/pic32c/8.3.1/../../../../pic32c/lib/thumb/v7e-m+fp/hard\libg-musl.a(__io_std_needed.o)
 .data          0x00000000        0x0 c:/program files/microchip/xc32/v4.00/bin/bin/../../lib/gcc/pic32c/8.3.1/../../../../pic32c/lib/thumb/v7e-m+fp/hard\libg-musl.a(__io_std_needed.o)
 .bss           0x00000000        0x0 c:/program files/microchip/xc32/v4.00/bin/bin/../../lib/gcc/pic32c/8.3.1/../../../../pic32c/lib/thumb/v7e-m+fp/hard\libg-musl.a(__io_std_needed.o)
 .xc_stack_usage
                0x00000000       0x1d c:/program files/microchip/xc32/v4.00/bin/bin/../../lib/gcc/pic32c/8.3.1/../../../../pic32c/lib/thumb/v7e-m+fp/hard\libg-musl.a(__io_std_needed.o)
 .xc_stack_usage.hdr
                0x00000000        0xe c:/program files/microchip/xc32/v4.00/bin/bin/../../lib/gcc/pic32c/8.3.1/../../../../pic32c/lib/thumb/v7e-m+fp/hard\libg-musl.a(__io_std_needed.o)
 .debug_info    0x00000000      0x8e4 c:/program files/microchip/xc32/v4.00/bin/bin/../../lib/gcc/pic32c/8.3.1/../../../../pic32c/lib/thumb/v7e-m+fp/hard\libg-musl.a(__io_std_needed.o)
 .debug_abbrev  0x00000000      0x108 c:/program files/microchip/xc32/v4.00/bin/bin/../../lib/gcc/pic32c/8.3.1/../../../../pic32c/lib/thumb/v7e-m+fp/hard\libg-musl.a(__io_std_needed.o)
 .debug_loc     0x00000000       0x2c c:/program files/microchip/xc32/v4.00/bin/bin/../../lib/gcc/pic32c/8.3.1/../../../../pic32c/lib/thumb/v7e-m+fp/hard\libg-musl.a(__io_std_needed.o)
 .debug_aranges
                0x00000000       0x20 c:/program files/microchip/xc32/v4.00/bin/bin/../../lib/gcc/pic32c/8.3.1/../../../../pic32c/lib/thumb/v7e-m+fp/hard\libg-musl.a(__io_std_needed.o)
 .debug_ranges  0x00000000       0x10 c:/program files/microchip/xc32/v4.00/bin/bin/../../lib/gcc/pic32c/8.3.1/../../../../pic32c/lib/thumb/v7e-m+fp/hard\libg-musl.a(__io_std_needed.o)
 .debug_line    0x00000000      0x1e4 c:/program files/microchip/xc32/v4.00/bin/bin/../../lib/gcc/pic32c/8.3.1/../../../../pic32c/lib/thumb/v7e-m+fp/hard\libg-musl.a(__io_std_needed.o)
 .debug_str     0x00000000       0x6b c:/program files/microchip/xc32/v4.00/bin/bin/../../lib/gcc/pic32c/8.3.1/../../../../pic32c/lib/thumb/v7e-m+fp/hard\libg-musl.a(__io_std_needed.o)
 .comment       0x00000000       0x54 c:/program files/microchip/xc32/v4.00/bin/bin/../../lib/gcc/pic32c/8.3.1/../../../../pic32c/lib/thumb/v7e-m+fp/hard\libg-musl.a(__io_std_needed.o)
 .note.GNU-stack
                0x00000000        0x0 c:/program files/microchip/xc32/v4.00/bin/bin/../../lib/gcc/pic32c/8.3.1/../../../../pic32c/lib/thumb/v7e-m+fp/hard\libg-musl.a(__io_std_needed.o)
 .debug_frame   0x00000000       0x2c c:/program files/microchip/xc32/v4.00/bin/bin/../../lib/gcc/pic32c/8.3.1/../../../../pic32c/lib/thumb/v7e-m+fp/hard\libg-musl.a(__io_std_needed.o)
 .ARM.attributes
                0x00000000       0x36 c:/program files/microchip/xc32/v4.00/bin/bin/../../lib/gcc/pic32c/8.3.1/../../../../pic32c/lib/thumb/v7e-m+fp/hard\libg-musl.a(__io_std_needed.o)
 .text          0x00000000        0x0 c:/program files/microchip/xc32/v4.00/bin/bin/../../lib/gcc/pic32c/8.3.1/../../../../pic32c/lib/thumb/v7e-m+fp/hard\libg-musl.a(__out.o)
 .data          0x00000000        0x0 c:/program files/microchip/xc32/v4.00/bin/bin/../../lib/gcc/pic32c/8.3.1/../../../../pic32c/lib/thumb/v7e-m+fp/hard\libg-musl.a(__out.o)
 .bss           0x00000000        0x0 c:/program files/microchip/xc32/v4.00/bin/bin/../../lib/gcc/pic32c/8.3.1/../../../../pic32c/lib/thumb/v7e-m+fp/hard\libg-musl.a(__out.o)
 .xc_stack_usage
                0x00000000       0x2d c:/program files/microchip/xc32/v4.00/bin/bin/../../lib/gcc/pic32c/8.3.1/../../../../pic32c/lib/thumb/v7e-m+fp/hard\libg-musl.a(__out.o)
 .xc_stack_usage.hdr
                0x00000000        0xe c:/program files/microchip/xc32/v4.00/bin/bin/../../lib/gcc/pic32c/8.3.1/../../../../pic32c/lib/thumb/v7e-m+fp/hard\libg-musl.a(__out.o)
 .text          0x00000000        0x0 c:/program files/microchip/xc32/v4.00/bin/bin/../../lib/gcc/pic32c/8.3.1/../../../../pic32c/lib/thumb/v7e-m+fp/hard\libg-musl.a(__printf_core.o)
 .data          0x00000000        0x0 c:/program files/microchip/xc32/v4.00/bin/bin/../../lib/gcc/pic32c/8.3.1/../../../../pic32c/lib/thumb/v7e-m+fp/hard\libg-musl.a(__printf_core.o)
 .bss           0x00000000        0x0 c:/program files/microchip/xc32/v4.00/bin/bin/../../lib/gcc/pic32c/8.3.1/../../../../pic32c/lib/thumb/v7e-m+fp/hard\libg-musl.a(__printf_core.o)
 .xc_stack_usage
                0x00000000       0xaf c:/program files/microchip/xc32/v4.00/bin/bin/../../lib/gcc/pic32c/8.3.1/../../../../pic32c/lib/thumb/v7e-m+fp/hard\libg-musl.a(__printf_core.o)
 .text.__string_out
                0x00000000       0x26 c:/program files/microchip/xc32/v4.00/bin/bin/../../lib/gcc/pic32c/8.3.1/../../../../pic32c/lib/thumb/v7e-m+fp/hard\libg-musl.a(__printf_core.o)
 .text.__dummy_fmt3
                0x00000000        0x4 c:/program files/microchip/xc32/v4.00/bin/bin/../../lib/gcc/pic32c/8.3.1/../../../../pic32c/lib/thumb/v7e-m+fp/hard\libg-musl.a(__printf_core.o)
 .text.__dummy_fmt4
                0x00000000        0x4 c:/program files/microchip/xc32/v4.00/bin/bin/../../lib/gcc/pic32c/8.3.1/../../../../pic32c/lib/thumb/v7e-m+fp/hard\libg-musl.a(__printf_core.o)
 .text.__dummy_fmts
                0x00000000        0x4 c:/program files/microchip/xc32/v4.00/bin/bin/../../lib/gcc/pic32c/8.3.1/../../../../pic32c/lib/thumb/v7e-m+fp/hard\libg-musl.a(__printf_core.o)
 .xc_stack_usage.hdr
                0x00000000        0xe c:/program files/microchip/xc32/v4.00/bin/bin/../../lib/gcc/pic32c/8.3.1/../../../../pic32c/lib/thumb/v7e-m+fp/hard\libg-musl.a(__printf_core.o)
 .text          0x00000000        0x0 c:/program files/microchip/xc32/v4.00/bin/bin/../../lib/gcc/pic32c/8.3.1/../../../../pic32c/lib/thumb/v7e-m+fp/hard\libg-musl.a(__putc.o)
 .data          0x00000000        0x0 c:/program files/microchip/xc32/v4.00/bin/bin/../../lib/gcc/pic32c/8.3.1/../../../../pic32c/lib/thumb/v7e-m+fp/hard\libg-musl.a(__putc.o)
 .bss           0x00000000        0x0 c:/program files/microchip/xc32/v4.00/bin/bin/../../lib/gcc/pic32c/8.3.1/../../../../pic32c/lib/thumb/v7e-m+fp/hard\libg-musl.a(__putc.o)
 .xc_stack_usage
                0x00000000       0x14 c:/program files/microchip/xc32/v4.00/bin/bin/../../lib/gcc/pic32c/8.3.1/../../../../pic32c/lib/thumb/v7e-m+fp/hard\libg-musl.a(__putc.o)
 .text.__putc   0x00000000       0x3e c:/program files/microchip/xc32/v4.00/bin/bin/../../lib/gcc/pic32c/8.3.1/../../../../pic32c/lib/thumb/v7e-m+fp/hard\libg-musl.a(__putc.o)
 .xc_stack_usage.hdr
                0x00000000        0xe c:/program files/microchip/xc32/v4.00/bin/bin/../../lib/gcc/pic32c/8.3.1/../../../../pic32c/lib/thumb/v7e-m+fp/hard\libg-musl.a(__putc.o)
 .debug_info    0x00000000      0x7f4 c:/program files/microchip/xc32/v4.00/bin/bin/../../lib/gcc/pic32c/8.3.1/../../../../pic32c/lib/thumb/v7e-m+fp/hard\libg-musl.a(__putc.o)
 .debug_abbrev  0x00000000      0x12f c:/program files/microchip/xc32/v4.00/bin/bin/../../lib/gcc/pic32c/8.3.1/../../../../pic32c/lib/thumb/v7e-m+fp/hard\libg-musl.a(__putc.o)
 .debug_loc     0x00000000      0x114 c:/program files/microchip/xc32/v4.00/bin/bin/../../lib/gcc/pic32c/8.3.1/../../../../pic32c/lib/thumb/v7e-m+fp/hard\libg-musl.a(__putc.o)
 .debug_aranges
                0x00000000       0x20 c:/program files/microchip/xc32/v4.00/bin/bin/../../lib/gcc/pic32c/8.3.1/../../../../pic32c/lib/thumb/v7e-m+fp/hard\libg-musl.a(__putc.o)
 .debug_ranges  0x00000000       0x10 c:/program files/microchip/xc32/v4.00/bin/bin/../../lib/gcc/pic32c/8.3.1/../../../../pic32c/lib/thumb/v7e-m+fp/hard\libg-musl.a(__putc.o)
 .debug_line    0x00000000      0x1f8 c:/program files/microchip/xc32/v4.00/bin/bin/../../lib/gcc/pic32c/8.3.1/../../../../pic32c/lib/thumb/v7e-m+fp/hard\libg-musl.a(__putc.o)
 .debug_str     0x00000000       0x1d c:/program files/microchip/xc32/v4.00/bin/bin/../../lib/gcc/pic32c/8.3.1/../../../../pic32c/lib/thumb/v7e-m+fp/hard\libg-musl.a(__putc.o)
 .comment       0x00000000       0x54 c:/program files/microchip/xc32/v4.00/bin/bin/../../lib/gcc/pic32c/8.3.1/../../../../pic32c/lib/thumb/v7e-m+fp/hard\libg-musl.a(__putc.o)
 .note.GNU-stack
                0x00000000        0x0 c:/program files/microchip/xc32/v4.00/bin/bin/../../lib/gcc/pic32c/8.3.1/../../../../pic32c/lib/thumb/v7e-m+fp/hard\libg-musl.a(__putc.o)
 .debug_frame   0x00000000       0x38 c:/program files/microchip/xc32/v4.00/bin/bin/../../lib/gcc/pic32c/8.3.1/../../../../pic32c/lib/thumb/v7e-m+fp/hard\libg-musl.a(__putc.o)
 .ARM.attributes
                0x00000000       0x36 c:/program files/microchip/xc32/v4.00/bin/bin/../../lib/gcc/pic32c/8.3.1/../../../../pic32c/lib/thumb/v7e-m+fp/hard\libg-musl.a(__putc.o)
 .text          0x00000000        0x0 c:/program files/microchip/xc32/v4.00/bin/bin/../../lib/gcc/pic32c/8.3.1/../../../../pic32c/lib/thumb/v7e-m+fp/hard\libg-musl.a(__stderr.o)
 .data          0x00000000       0x68 c:/program files/microchip/xc32/v4.00/bin/bin/../../lib/gcc/pic32c/8.3.1/../../../../pic32c/lib/thumb/v7e-m+fp/hard\libg-musl.a(__stderr.o)
 .bss           0x00000000        0x0 c:/program files/microchip/xc32/v4.00/bin/bin/../../lib/gcc/pic32c/8.3.1/../../../../pic32c/lib/thumb/v7e-m+fp/hard\libg-musl.a(__stderr.o)
 .xc_stack_usage
                0x00000000       0x50 c:/program files/microchip/xc32/v4.00/bin/bin/../../lib/gcc/pic32c/8.3.1/../../../../pic32c/lib/thumb/v7e-m+fp/hard\libg-musl.a(__stderr.o)
 .text.__get_stderr
                0x00000000        0x8 c:/program files/microchip/xc32/v4.00/bin/bin/../../lib/gcc/pic32c/8.3.1/../../../../pic32c/lib/thumb/v7e-m+fp/hard\libg-musl.a(__stderr.o)
 .xc_stack_usage.hdr
                0x00000000        0xe c:/program files/microchip/xc32/v4.00/bin/bin/../../lib/gcc/pic32c/8.3.1/../../../../pic32c/lib/thumb/v7e-m+fp/hard\libg-musl.a(__stderr.o)
 .text          0x00000000        0x0 c:/program files/microchip/xc32/v4.00/bin/bin/../../lib/gcc/pic32c/8.3.1/../../../../pic32c/lib/thumb/v7e-m+fp/hard\libg-musl.a(__stdio_close.o)
 .data          0x00000000        0x0 c:/program files/microchip/xc32/v4.00/bin/bin/../../lib/gcc/pic32c/8.3.1/../../../../pic32c/lib/thumb/v7e-m+fp/hard\libg-musl.a(__stdio_close.o)
 .bss           0x00000000        0x0 c:/program files/microchip/xc32/v4.00/bin/bin/../../lib/gcc/pic32c/8.3.1/../../../../pic32c/lib/thumb/v7e-m+fp/hard\libg-musl.a(__stdio_close.o)
 .xc_stack_usage
                0x00000000       0x39 c:/program files/microchip/xc32/v4.00/bin/bin/../../lib/gcc/pic32c/8.3.1/../../../../pic32c/lib/thumb/v7e-m+fp/hard\libg-musl.a(__stdio_close.o)
 .text.__stdio_close
                0x00000000       0x44 c:/program files/microchip/xc32/v4.00/bin/bin/../../lib/gcc/pic32c/8.3.1/../../../../pic32c/lib/thumb/v7e-m+fp/hard\libg-musl.a(__stdio_close.o)
 .xc_stack_usage.hdr
                0x00000000        0xe c:/program files/microchip/xc32/v4.00/bin/bin/../../lib/gcc/pic32c/8.3.1/../../../../pic32c/lib/thumb/v7e-m+fp/hard\libg-musl.a(__stdio_close.o)
 .text          0x00000000        0x0 c:/program files/microchip/xc32/v4.00/bin/bin/../../lib/gcc/pic32c/8.3.1/../../../../pic32c/lib/thumb/v7e-m+fp/hard\libg-musl.a(__stdio_exit.o)
 .data          0x00000000        0x0 c:/program files/microchip/xc32/v4.00/bin/bin/../../lib/gcc/pic32c/8.3.1/../../../../pic32c/lib/thumb/v7e-m+fp/hard\libg-musl.a(__stdio_exit.o)
 .bss           0x00000000        0x4 c:/program files/microchip/xc32/v4.00/bin/bin/../../lib/gcc/pic32c/8.3.1/../../../../pic32c/lib/thumb/v7e-m+fp/hard\libg-musl.a(__stdio_exit.o)
 .xc_stack_usage
                0x00000000       0x45 c:/program files/microchip/xc32/v4.00/bin/bin/../../lib/gcc/pic32c/8.3.1/../../../../pic32c/lib/thumb/v7e-m+fp/hard\libg-musl.a(__stdio_exit.o)
 .text.__dummy  0x00000000        0x2 c:/program files/microchip/xc32/v4.00/bin/bin/../../lib/gcc/pic32c/8.3.1/../../../../pic32c/lib/thumb/v7e-m+fp/hard\libg-musl.a(__stdio_exit.o)
 .text.__dummy1
                0x00000000        0x4 c:/program files/microchip/xc32/v4.00/bin/bin/../../lib/gcc/pic32c/8.3.1/../../../../pic32c/lib/thumb/v7e-m+fp/hard\libg-musl.a(__stdio_exit.o)
 .text.__stdio_exit
                0x00000000       0x34 c:/program files/microchip/xc32/v4.00/bin/bin/../../lib/gcc/pic32c/8.3.1/../../../../pic32c/lib/thumb/v7e-m+fp/hard\libg-musl.a(__stdio_exit.o)
 .xc_stack_usage.hdr
                0x00000000        0xe c:/program files/microchip/xc32/v4.00/bin/bin/../../lib/gcc/pic32c/8.3.1/../../../../pic32c/lib/thumb/v7e-m+fp/hard\libg-musl.a(__stdio_exit.o)
 .debug_info    0x00000000      0x87d c:/program files/microchip/xc32/v4.00/bin/bin/../../lib/gcc/pic32c/8.3.1/../../../../pic32c/lib/thumb/v7e-m+fp/hard\libg-musl.a(__stdio_exit.o)
 .debug_abbrev  0x00000000      0x18c c:/program files/microchip/xc32/v4.00/bin/bin/../../lib/gcc/pic32c/8.3.1/../../../../pic32c/lib/thumb/v7e-m+fp/hard\libg-musl.a(__stdio_exit.o)
 .debug_loc     0x00000000       0x45 c:/program files/microchip/xc32/v4.00/bin/bin/../../lib/gcc/pic32c/8.3.1/../../../../pic32c/lib/thumb/v7e-m+fp/hard\libg-musl.a(__stdio_exit.o)
 .debug_aranges
                0x00000000       0x30 c:/program files/microchip/xc32/v4.00/bin/bin/../../lib/gcc/pic32c/8.3.1/../../../../pic32c/lib/thumb/v7e-m+fp/hard\libg-musl.a(__stdio_exit.o)
 .debug_ranges  0x00000000       0x20 c:/program files/microchip/xc32/v4.00/bin/bin/../../lib/gcc/pic32c/8.3.1/../../../../pic32c/lib/thumb/v7e-m+fp/hard\libg-musl.a(__stdio_exit.o)
 .debug_line    0x00000000      0x20a c:/program files/microchip/xc32/v4.00/bin/bin/../../lib/gcc/pic32c/8.3.1/../../../../pic32c/lib/thumb/v7e-m+fp/hard\libg-musl.a(__stdio_exit.o)
 .debug_str     0x00000000        0x0 c:/program files/microchip/xc32/v4.00/bin/bin/../../lib/gcc/pic32c/8.3.1/../../../../pic32c/lib/thumb/v7e-m+fp/hard\libg-musl.a(__stdio_exit.o)
 .comment       0x00000000       0x54 c:/program files/microchip/xc32/v4.00/bin/bin/../../lib/gcc/pic32c/8.3.1/../../../../pic32c/lib/thumb/v7e-m+fp/hard\libg-musl.a(__stdio_exit.o)
 .note.GNU-stack
                0x00000000        0x0 c:/program files/microchip/xc32/v4.00/bin/bin/../../lib/gcc/pic32c/8.3.1/../../../../pic32c/lib/thumb/v7e-m+fp/hard\libg-musl.a(__stdio_exit.o)
 .debug_frame   0x00000000       0x48 c:/program files/microchip/xc32/v4.00/bin/bin/../../lib/gcc/pic32c/8.3.1/../../../../pic32c/lib/thumb/v7e-m+fp/hard\libg-musl.a(__stdio_exit.o)
 .ARM.attributes
                0x00000000       0x36 c:/program files/microchip/xc32/v4.00/bin/bin/../../lib/gcc/pic32c/8.3.1/../../../../pic32c/lib/thumb/v7e-m+fp/hard\libg-musl.a(__stdio_exit.o)
 .text          0x00000000        0x0 c:/program files/microchip/xc32/v4.00/bin/bin/../../lib/gcc/pic32c/8.3.1/../../../../pic32c/lib/thumb/v7e-m+fp/hard\libg-musl.a(__stdio_write.o)
 .data          0x00000000        0x0 c:/program files/microchip/xc32/v4.00/bin/bin/../../lib/gcc/pic32c/8.3.1/../../../../pic32c/lib/thumb/v7e-m+fp/hard\libg-musl.a(__stdio_write.o)
 .bss           0x00000000        0x0 c:/program files/microchip/xc32/v4.00/bin/bin/../../lib/gcc/pic32c/8.3.1/../../../../pic32c/lib/thumb/v7e-m+fp/hard\libg-musl.a(__stdio_write.o)
 .xc_stack_usage
                0x00000000       0x42 c:/program files/microchip/xc32/v4.00/bin/bin/../../lib/gcc/pic32c/8.3.1/../../../../pic32c/lib/thumb/v7e-m+fp/hard\libg-musl.a(__stdio_write.o)
 .xc_stack_usage.hdr
                0x00000000        0xe c:/program files/microchip/xc32/v4.00/bin/bin/../../lib/gcc/pic32c/8.3.1/../../../../pic32c/lib/thumb/v7e-m+fp/hard\libg-musl.a(__stdio_write.o)
 .text          0x00000000        0x0 c:/program files/microchip/xc32/v4.00/bin/bin/../../lib/gcc/pic32c/8.3.1/../../../../pic32c/lib/thumb/v7e-m+fp/hard\libg-musl.a(__stdout.o)
 .bss           0x00000000        0x0 c:/program files/microchip/xc32/v4.00/bin/bin/../../lib/gcc/pic32c/8.3.1/../../../../pic32c/lib/thumb/v7e-m+fp/hard\libg-musl.a(__stdout.o)
 .xc_stack_usage
                0x00000000       0x50 c:/program files/microchip/xc32/v4.00/bin/bin/../../lib/gcc/pic32c/8.3.1/../../../../pic32c/lib/thumb/v7e-m+fp/hard\libg-musl.a(__stdout.o)
 .text.__dummy  0x00000000        0x2 c:/program files/microchip/xc32/v4.00/bin/bin/../../lib/gcc/pic32c/8.3.1/../../../../pic32c/lib/thumb/v7e-m+fp/hard\libg-musl.a(__stdout.o)
 .xc_stack_usage.hdr
                0x00000000        0xe c:/program files/microchip/xc32/v4.00/bin/bin/../../lib/gcc/pic32c/8.3.1/../../../../pic32c/lib/thumb/v7e-m+fp/hard\libg-musl.a(__stdout.o)
 .text          0x00000000        0x0 c:/program files/microchip/xc32/v4.00/bin/bin/../../lib/gcc/pic32c/8.3.1/../../../../pic32c/lib/thumb/v7e-m+fp/hard\libg-musl.a(__towrite.o)
 .data          0x00000000        0x0 c:/program files/microchip/xc32/v4.00/bin/bin/../../lib/gcc/pic32c/8.3.1/../../../../pic32c/lib/thumb/v7e-m+fp/hard\libg-musl.a(__towrite.o)
 .bss           0x00000000        0x0 c:/program files/microchip/xc32/v4.00/bin/bin/../../lib/gcc/pic32c/8.3.1/../../../../pic32c/lib/thumb/v7e-m+fp/hard\libg-musl.a(__towrite.o)
 .xc_stack_usage
                0x00000000       0x2c c:/program files/microchip/xc32/v4.00/bin/bin/../../lib/gcc/pic32c/8.3.1/../../../../pic32c/lib/thumb/v7e-m+fp/hard\libg-musl.a(__towrite.o)
 .text.__dummy  0x00000000        0x4 c:/program files/microchip/xc32/v4.00/bin/bin/../../lib/gcc/pic32c/8.3.1/../../../../pic32c/lib/thumb/v7e-m+fp/hard\libg-musl.a(__towrite.o)
 .xc_stack_usage.hdr
                0x00000000        0xe c:/program files/microchip/xc32/v4.00/bin/bin/../../lib/gcc/pic32c/8.3.1/../../../../pic32c/lib/thumb/v7e-m+fp/hard\libg-musl.a(__towrite.o)
 .text          0x00000000        0x0 c:/program files/microchip/xc32/v4.00/bin/bin/../../lib/gcc/pic32c/8.3.1/../../../../pic32c/lib/thumb/v7e-m+fp/hard\libg-musl.a(putc.o)
 .data          0x00000000        0x0 c:/program files/microchip/xc32/v4.00/bin/bin/../../lib/gcc/pic32c/8.3.1/../../../../pic32c/lib/thumb/v7e-m+fp/hard\libg-musl.a(putc.o)
 .bss           0x00000000        0x0 c:/program files/microchip/xc32/v4.00/bin/bin/../../lib/gcc/pic32c/8.3.1/../../../../pic32c/lib/thumb/v7e-m+fp/hard\libg-musl.a(putc.o)
 .xc_stack_usage
                0x00000000       0x4f c:/program files/microchip/xc32/v4.00/bin/bin/../../lib/gcc/pic32c/8.3.1/../../../../pic32c/lib/thumb/v7e-m+fp/hard\libg-musl.a(putc.o)
 .text.__putc_unbuffered
                0x00000000       0x38 c:/program files/microchip/xc32/v4.00/bin/bin/../../lib/gcc/pic32c/8.3.1/../../../../pic32c/lib/thumb/v7e-m+fp/hard\libg-musl.a(putc.o)
 .text.putc     0x00000000        0x8 c:/program files/microchip/xc32/v4.00/bin/bin/../../lib/gcc/pic32c/8.3.1/../../../../pic32c/lib/thumb/v7e-m+fp/hard\libg-musl.a(putc.o)
 __xc_reference_data
                0x00000000        0x8 c:/program files/microchip/xc32/v4.00/bin/bin/../../lib/gcc/pic32c/8.3.1/../../../../pic32c/lib/thumb/v7e-m+fp/hard\libg-musl.a(putc.o)
 .xc_stack_usage.hdr
                0x00000000        0xe c:/program files/microchip/xc32/v4.00/bin/bin/../../lib/gcc/pic32c/8.3.1/../../../../pic32c/lib/thumb/v7e-m+fp/hard\libg-musl.a(putc.o)
 .debug_info    0x00000000      0x7c4 c:/program files/microchip/xc32/v4.00/bin/bin/../../lib/gcc/pic32c/8.3.1/../../../../pic32c/lib/thumb/v7e-m+fp/hard\libg-musl.a(putc.o)
 .debug_abbrev  0x00000000      0x14c c:/program files/microchip/xc32/v4.00/bin/bin/../../lib/gcc/pic32c/8.3.1/../../../../pic32c/lib/thumb/v7e-m+fp/hard\libg-musl.a(putc.o)
 .debug_loc     0x00000000      0x123 c:/program files/microchip/xc32/v4.00/bin/bin/../../lib/gcc/pic32c/8.3.1/../../../../pic32c/lib/thumb/v7e-m+fp/hard\libg-musl.a(putc.o)
 .debug_aranges
                0x00000000       0x30 c:/program files/microchip/xc32/v4.00/bin/bin/../../lib/gcc/pic32c/8.3.1/../../../../pic32c/lib/thumb/v7e-m+fp/hard\libg-musl.a(putc.o)
 .debug_ranges  0x00000000       0x20 c:/program files/microchip/xc32/v4.00/bin/bin/../../lib/gcc/pic32c/8.3.1/../../../../pic32c/lib/thumb/v7e-m+fp/hard\libg-musl.a(putc.o)
 .debug_line    0x00000000      0x2a4 c:/program files/microchip/xc32/v4.00/bin/bin/../../lib/gcc/pic32c/8.3.1/../../../../pic32c/lib/thumb/v7e-m+fp/hard\libg-musl.a(putc.o)
 .debug_str     0x00000000       0x16 c:/program files/microchip/xc32/v4.00/bin/bin/../../lib/gcc/pic32c/8.3.1/../../../../pic32c/lib/thumb/v7e-m+fp/hard\libg-musl.a(putc.o)
 .comment       0x00000000       0x54 c:/program files/microchip/xc32/v4.00/bin/bin/../../lib/gcc/pic32c/8.3.1/../../../../pic32c/lib/thumb/v7e-m+fp/hard\libg-musl.a(putc.o)
 .note.GNU-stack
                0x00000000        0x0 c:/program files/microchip/xc32/v4.00/bin/bin/../../lib/gcc/pic32c/8.3.1/../../../../pic32c/lib/thumb/v7e-m+fp/hard\libg-musl.a(putc.o)
 .debug_frame   0x00000000       0x54 c:/program files/microchip/xc32/v4.00/bin/bin/../../lib/gcc/pic32c/8.3.1/../../../../pic32c/lib/thumb/v7e-m+fp/hard\libg-musl.a(putc.o)
 .ARM.attributes
                0x00000000       0x36 c:/program files/microchip/xc32/v4.00/bin/bin/../../lib/gcc/pic32c/8.3.1/../../../../pic32c/lib/thumb/v7e-m+fp/hard\libg-musl.a(putc.o)
 .text          0x00000000        0x0 c:/program files/microchip/xc32/v4.00/bin/bin/../../lib/gcc/pic32c/8.3.1/../../../../pic32c/lib/thumb/v7e-m+fp/hard\libg-musl.a(atoi.o)
 .data          0x00000000        0x0 c:/program files/microchip/xc32/v4.00/bin/bin/../../lib/gcc/pic32c/8.3.1/../../../../pic32c/lib/thumb/v7e-m+fp/hard\libg-musl.a(atoi.o)
 .bss           0x00000000        0x0 c:/program files/microchip/xc32/v4.00/bin/bin/../../lib/gcc/pic32c/8.3.1/../../../../pic32c/lib/thumb/v7e-m+fp/hard\libg-musl.a(atoi.o)
 .xc_stack_usage
                0x00000000       0x12 c:/program files/microchip/xc32/v4.00/bin/bin/../../lib/gcc/pic32c/8.3.1/../../../../pic32c/lib/thumb/v7e-m+fp/hard\libg-musl.a(atoi.o)
 .xc_stack_usage.hdr
                0x00000000        0xe c:/program files/microchip/xc32/v4.00/bin/bin/../../lib/gcc/pic32c/8.3.1/../../../../pic32c/lib/thumb/v7e-m+fp/hard\libg-musl.a(atoi.o)
 .text          0x00000000        0x0 c:/program files/microchip/xc32/v4.00/bin/bin/../../lib/gcc/pic32c/8.3.1/../../../../pic32c/lib/thumb/v7e-m+fp/hard\libg-musl.a(read.o)
 .data          0x00000000        0x0 c:/program files/microchip/xc32/v4.00/bin/bin/../../lib/gcc/pic32c/8.3.1/../../../../pic32c/lib/thumb/v7e-m+fp/hard\libg-musl.a(read.o)
 .bss           0x00000000        0x0 c:/program files/microchip/xc32/v4.00/bin/bin/../../lib/gcc/pic32c/8.3.1/../../../../pic32c/lib/thumb/v7e-m+fp/hard\libg-musl.a(read.o)
 .xc_stack_usage
                0x00000000       0x14 c:/program files/microchip/xc32/v4.00/bin/bin/../../lib/gcc/pic32c/8.3.1/../../../../pic32c/lib/thumb/v7e-m+fp/hard\libg-musl.a(read.o)
 .gnu.warning.read
                0x00000000        0x0 c:/program files/microchip/xc32/v4.00/bin/bin/../../lib/gcc/pic32c/8.3.1/../../../../pic32c/lib/thumb/v7e-m+fp/hard\libg-musl.a(read.o)
 .xc_stack_usage.hdr
                0x00000000        0xe c:/program files/microchip/xc32/v4.00/bin/bin/../../lib/gcc/pic32c/8.3.1/../../../../pic32c/lib/thumb/v7e-m+fp/hard\libg-musl.a(read.o)
 .text          0x00000000        0x0 c:/program files/microchip/xc32/v4.00/bin/bin/../../lib/gcc/pic32c/8.3.1/../../../../pic32c/lib/thumb/v7e-m+fp/hard\libg-musl.a(writev.o)
 .data          0x00000000        0x0 c:/program files/microchip/xc32/v4.00/bin/bin/../../lib/gcc/pic32c/8.3.1/../../../../pic32c/lib/thumb/v7e-m+fp/hard\libg-musl.a(writev.o)
 .bss           0x00000000        0x0 c:/program files/microchip/xc32/v4.00/bin/bin/../../lib/gcc/pic32c/8.3.1/../../../../pic32c/lib/thumb/v7e-m+fp/hard\libg-musl.a(writev.o)
 .xc_stack_usage
                0x00000000       0x16 c:/program files/microchip/xc32/v4.00/bin/bin/../../lib/gcc/pic32c/8.3.1/../../../../pic32c/lib/thumb/v7e-m+fp/hard\libg-musl.a(writev.o)
 .xc_stack_usage.hdr
                0x00000000        0xe c:/program files/microchip/xc32/v4.00/bin/bin/../../lib/gcc/pic32c/8.3.1/../../../../pic32c/lib/thumb/v7e-m+fp/hard\libg-musl.a(writev.o)
 .text          0x00000000        0x0 c:/program files/microchip/xc32/v4.00/bin/bin/../../lib/gcc/pic32c/8.3.1/../../../../pic32c/lib/thumb/v7e-m+fp/hard\libg-musl.a(tolower.o)
 .data          0x00000000        0x0 c:/program files/microchip/xc32/v4.00/bin/bin/../../lib/gcc/pic32c/8.3.1/../../../../pic32c/lib/thumb/v7e-m+fp/hard\libg-musl.a(tolower.o)
 .bss           0x00000000        0x0 c:/program files/microchip/xc32/v4.00/bin/bin/../../lib/gcc/pic32c/8.3.1/../../../../pic32c/lib/thumb/v7e-m+fp/hard\libg-musl.a(tolower.o)
 .xc_stack_usage
                0x00000000       0x2e c:/program files/microchip/xc32/v4.00/bin/bin/../../lib/gcc/pic32c/8.3.1/../../../../pic32c/lib/thumb/v7e-m+fp/hard\libg-musl.a(tolower.o)
 .text.__tolower_l
                0x00000000        0x4 c:/program files/microchip/xc32/v4.00/bin/bin/../../lib/gcc/pic32c/8.3.1/../../../../pic32c/lib/thumb/v7e-m+fp/hard\libg-musl.a(tolower.o)
 .xc_stack_usage.hdr
                0x00000000        0xe c:/program files/microchip/xc32/v4.00/bin/bin/../../lib/gcc/pic32c/8.3.1/../../../../pic32c/lib/thumb/v7e-m+fp/hard\libg-musl.a(tolower.o)
 .text          0x00000000        0x0 c:/program files/microchip/xc32/v4.00/bin/bin/../../lib/gcc/pic32c/8.3.1/../../../../pic32c/lib/thumb/v7e-m+fp/hard\libg-musl.a(__errno_location.o)
 .data          0x00000000        0x0 c:/program files/microchip/xc32/v4.00/bin/bin/../../lib/gcc/pic32c/8.3.1/../../../../pic32c/lib/thumb/v7e-m+fp/hard\libg-musl.a(__errno_location.o)
 .xc_stack_usage.hdr
                0x00000000        0xe c:/program files/microchip/xc32/v4.00/bin/bin/../../lib/gcc/pic32c/8.3.1/../../../../pic32c/lib/thumb/v7e-m+fp/hard\libg-musl.a(__errno_location.o)
 .text          0x00000000        0x0 c:/program files/microchip/xc32/v4.00/bin/bin/../../lib/gcc/pic32c/8.3.1/../../../../pic32c/lib/thumb/v7e-m+fp/hard\libg-musl.a(syscall_ret.o)
 .data          0x00000000        0x0 c:/program files/microchip/xc32/v4.00/bin/bin/../../lib/gcc/pic32c/8.3.1/../../../../pic32c/lib/thumb/v7e-m+fp/hard\libg-musl.a(syscall_ret.o)
 .bss           0x00000000        0x0 c:/program files/microchip/xc32/v4.00/bin/bin/../../lib/gcc/pic32c/8.3.1/../../../../pic32c/lib/thumb/v7e-m+fp/hard\libg-musl.a(syscall_ret.o)
 .xc_stack_usage
                0x00000000       0x1b c:/program files/microchip/xc32/v4.00/bin/bin/../../lib/gcc/pic32c/8.3.1/../../../../pic32c/lib/thumb/v7e-m+fp/hard\libg-musl.a(syscall_ret.o)
 .xc_stack_usage.hdr
                0x00000000        0xe c:/program files/microchip/xc32/v4.00/bin/bin/../../lib/gcc/pic32c/8.3.1/../../../../pic32c/lib/thumb/v7e-m+fp/hard\libg-musl.a(syscall_ret.o)
 .text          0x00000000        0x0 c:/program files/microchip/xc32/v4.00/bin/bin/../../lib/gcc/pic32c/8.3.1/../../../../pic32c/lib/thumb/v7e-m+fp/hard\libg-musl.a(__overflow.o)
 .data          0x00000000        0x0 c:/program files/microchip/xc32/v4.00/bin/bin/../../lib/gcc/pic32c/8.3.1/../../../../pic32c/lib/thumb/v7e-m+fp/hard\libg-musl.a(__overflow.o)
 .bss           0x00000000        0x0 c:/program files/microchip/xc32/v4.00/bin/bin/../../lib/gcc/pic32c/8.3.1/../../../../pic32c/lib/thumb/v7e-m+fp/hard\libg-musl.a(__overflow.o)
 .xc_stack_usage
                0x00000000       0x18 c:/program files/microchip/xc32/v4.00/bin/bin/../../lib/gcc/pic32c/8.3.1/../../../../pic32c/lib/thumb/v7e-m+fp/hard\libg-musl.a(__overflow.o)
 .text.__overflow
                0x00000000       0x4e c:/program files/microchip/xc32/v4.00/bin/bin/../../lib/gcc/pic32c/8.3.1/../../../../pic32c/lib/thumb/v7e-m+fp/hard\libg-musl.a(__overflow.o)
 .xc_stack_usage.hdr
                0x00000000        0xe c:/program files/microchip/xc32/v4.00/bin/bin/../../lib/gcc/pic32c/8.3.1/../../../../pic32c/lib/thumb/v7e-m+fp/hard\libg-musl.a(__overflow.o)
 .debug_info    0x00000000      0x8b2 c:/program files/microchip/xc32/v4.00/bin/bin/../../lib/gcc/pic32c/8.3.1/../../../../pic32c/lib/thumb/v7e-m+fp/hard\libg-musl.a(__overflow.o)
 .debug_abbrev  0x00000000      0x138 c:/program files/microchip/xc32/v4.00/bin/bin/../../lib/gcc/pic32c/8.3.1/../../../../pic32c/lib/thumb/v7e-m+fp/hard\libg-musl.a(__overflow.o)
 .debug_loc     0x00000000       0xb6 c:/program files/microchip/xc32/v4.00/bin/bin/../../lib/gcc/pic32c/8.3.1/../../../../pic32c/lib/thumb/v7e-m+fp/hard\libg-musl.a(__overflow.o)
 .debug_aranges
                0x00000000       0x20 c:/program files/microchip/xc32/v4.00/bin/bin/../../lib/gcc/pic32c/8.3.1/../../../../pic32c/lib/thumb/v7e-m+fp/hard\libg-musl.a(__overflow.o)
 .debug_ranges  0x00000000       0x10 c:/program files/microchip/xc32/v4.00/bin/bin/../../lib/gcc/pic32c/8.3.1/../../../../pic32c/lib/thumb/v7e-m+fp/hard\libg-musl.a(__overflow.o)
 .debug_line    0x00000000      0x217 c:/program files/microchip/xc32/v4.00/bin/bin/../../lib/gcc/pic32c/8.3.1/../../../../pic32c/lib/thumb/v7e-m+fp/hard\libg-musl.a(__overflow.o)
 .debug_str     0x00000000        0xa c:/program files/microchip/xc32/v4.00/bin/bin/../../lib/gcc/pic32c/8.3.1/../../../../pic32c/lib/thumb/v7e-m+fp/hard\libg-musl.a(__overflow.o)
 .comment       0x00000000       0x54 c:/program files/microchip/xc32/v4.00/bin/bin/../../lib/gcc/pic32c/8.3.1/../../../../pic32c/lib/thumb/v7e-m+fp/hard\libg-musl.a(__overflow.o)
 .note.GNU-stack
                0x00000000        0x0 c:/program files/microchip/xc32/v4.00/bin/bin/../../lib/gcc/pic32c/8.3.1/../../../../pic32c/lib/thumb/v7e-m+fp/hard\libg-musl.a(__overflow.o)
 .debug_frame   0x00000000       0x30 c:/program files/microchip/xc32/v4.00/bin/bin/../../lib/gcc/pic32c/8.3.1/../../../../pic32c/lib/thumb/v7e-m+fp/hard\libg-musl.a(__overflow.o)
 .ARM.attributes
                0x00000000       0x36 c:/program files/microchip/xc32/v4.00/bin/bin/../../lib/gcc/pic32c/8.3.1/../../../../pic32c/lib/thumb/v7e-m+fp/hard\libg-musl.a(__overflow.o)
 .text          0x00000000        0x0 c:/program files/microchip/xc32/v4.00/bin/bin/../../lib/gcc/pic32c/8.3.1/../../../../pic32c/lib/thumb/v7e-m+fp/hard\libg-musl.a(__fclose.o)
 .data          0x00000000        0x0 c:/program files/microchip/xc32/v4.00/bin/bin/../../lib/gcc/pic32c/8.3.1/../../../../pic32c/lib/thumb/v7e-m+fp/hard\libg-musl.a(__fclose.o)
 .bss           0x00000000        0x0 c:/program files/microchip/xc32/v4.00/bin/bin/../../lib/gcc/pic32c/8.3.1/../../../../pic32c/lib/thumb/v7e-m+fp/hard\libg-musl.a(__fclose.o)
 .xc_stack_usage
                0x00000000       0x16 c:/program files/microchip/xc32/v4.00/bin/bin/../../lib/gcc/pic32c/8.3.1/../../../../pic32c/lib/thumb/v7e-m+fp/hard\libg-musl.a(__fclose.o)
 .text.__fclose
                0x00000000        0xc c:/program files/microchip/xc32/v4.00/bin/bin/../../lib/gcc/pic32c/8.3.1/../../../../pic32c/lib/thumb/v7e-m+fp/hard\libg-musl.a(__fclose.o)
 .xc_stack_usage.hdr
                0x00000000        0xe c:/program files/microchip/xc32/v4.00/bin/bin/../../lib/gcc/pic32c/8.3.1/../../../../pic32c/lib/thumb/v7e-m+fp/hard\libg-musl.a(__fclose.o)
 .debug_info    0x00000000      0x71c c:/program files/microchip/xc32/v4.00/bin/bin/../../lib/gcc/pic32c/8.3.1/../../../../pic32c/lib/thumb/v7e-m+fp/hard\libg-musl.a(__fclose.o)
 .debug_abbrev  0x00000000      0x107 c:/program files/microchip/xc32/v4.00/bin/bin/../../lib/gcc/pic32c/8.3.1/../../../../pic32c/lib/thumb/v7e-m+fp/hard\libg-musl.a(__fclose.o)
 .debug_loc     0x00000000       0x74 c:/program files/microchip/xc32/v4.00/bin/bin/../../lib/gcc/pic32c/8.3.1/../../../../pic32c/lib/thumb/v7e-m+fp/hard\libg-musl.a(__fclose.o)
 .debug_aranges
                0x00000000       0x20 c:/program files/microchip/xc32/v4.00/bin/bin/../../lib/gcc/pic32c/8.3.1/../../../../pic32c/lib/thumb/v7e-m+fp/hard\libg-musl.a(__fclose.o)
 .debug_ranges  0x00000000       0x10 c:/program files/microchip/xc32/v4.00/bin/bin/../../lib/gcc/pic32c/8.3.1/../../../../pic32c/lib/thumb/v7e-m+fp/hard\libg-musl.a(__fclose.o)
 .debug_line    0x00000000      0x1dd c:/program files/microchip/xc32/v4.00/bin/bin/../../lib/gcc/pic32c/8.3.1/../../../../pic32c/lib/thumb/v7e-m+fp/hard\libg-musl.a(__fclose.o)
 .debug_str     0x00000000        0x0 c:/program files/microchip/xc32/v4.00/bin/bin/../../lib/gcc/pic32c/8.3.1/../../../../pic32c/lib/thumb/v7e-m+fp/hard\libg-musl.a(__fclose.o)
 .comment       0x00000000       0x54 c:/program files/microchip/xc32/v4.00/bin/bin/../../lib/gcc/pic32c/8.3.1/../../../../pic32c/lib/thumb/v7e-m+fp/hard\libg-musl.a(__fclose.o)
 .note.GNU-stack
                0x00000000        0x0 c:/program files/microchip/xc32/v4.00/bin/bin/../../lib/gcc/pic32c/8.3.1/../../../../pic32c/lib/thumb/v7e-m+fp/hard\libg-musl.a(__fclose.o)
 .debug_frame   0x00000000       0x20 c:/program files/microchip/xc32/v4.00/bin/bin/../../lib/gcc/pic32c/8.3.1/../../../../pic32c/lib/thumb/v7e-m+fp/hard\libg-musl.a(__fclose.o)
 .ARM.attributes
                0x00000000       0x36 c:/program files/microchip/xc32/v4.00/bin/bin/../../lib/gcc/pic32c/8.3.1/../../../../pic32c/lib/thumb/v7e-m+fp/hard\libg-musl.a(__fclose.o)
 .text          0x00000000        0x0 c:/program files/microchip/xc32/v4.00/bin/bin/../../lib/gcc/pic32c/8.3.1/../../../../pic32c/lib/thumb/v7e-m+fp/hard\libg-musl.a(__fmt_a.o)
 .data          0x00000000        0x0 c:/program files/microchip/xc32/v4.00/bin/bin/../../lib/gcc/pic32c/8.3.1/../../../../pic32c/lib/thumb/v7e-m+fp/hard\libg-musl.a(__fmt_a.o)
 .bss           0x00000000        0x0 c:/program files/microchip/xc32/v4.00/bin/bin/../../lib/gcc/pic32c/8.3.1/../../../../pic32c/lib/thumb/v7e-m+fp/hard\libg-musl.a(__fmt_a.o)
 .xc_stack_usage
                0x00000000       0x15 c:/program files/microchip/xc32/v4.00/bin/bin/../../lib/gcc/pic32c/8.3.1/../../../../pic32c/lib/thumb/v7e-m+fp/hard\libg-musl.a(__fmt_a.o)
 .xc_stack_usage.hdr
                0x00000000        0xe c:/program files/microchip/xc32/v4.00/bin/bin/../../lib/gcc/pic32c/8.3.1/../../../../pic32c/lib/thumb/v7e-m+fp/hard\libg-musl.a(__fmt_a.o)
 .text          0x00000000        0x0 c:/program files/microchip/xc32/v4.00/bin/bin/../../lib/gcc/pic32c/8.3.1/../../../../pic32c/lib/thumb/v7e-m+fp/hard\libg-musl.a(__fmt_d.o)
 .data          0x00000000        0x0 c:/program files/microchip/xc32/v4.00/bin/bin/../../lib/gcc/pic32c/8.3.1/../../../../pic32c/lib/thumb/v7e-m+fp/hard\libg-musl.a(__fmt_d.o)
 .bss           0x00000000        0x0 c:/program files/microchip/xc32/v4.00/bin/bin/../../lib/gcc/pic32c/8.3.1/../../../../pic32c/lib/thumb/v7e-m+fp/hard\libg-musl.a(__fmt_d.o)
 .xc_stack_usage
                0x00000000       0x15 c:/program files/microchip/xc32/v4.00/bin/bin/../../lib/gcc/pic32c/8.3.1/../../../../pic32c/lib/thumb/v7e-m+fp/hard\libg-musl.a(__fmt_d.o)
 .xc_stack_usage.hdr
                0x00000000        0xe c:/program files/microchip/xc32/v4.00/bin/bin/../../lib/gcc/pic32c/8.3.1/../../../../pic32c/lib/thumb/v7e-m+fp/hard\libg-musl.a(__fmt_d.o)
 .text          0x00000000        0x0 c:/program files/microchip/xc32/v4.00/bin/bin/../../lib/gcc/pic32c/8.3.1/../../../../pic32c/lib/thumb/v7e-m+fp/hard\libg-musl.a(__fmt_fp.o)
 .data          0x00000000        0x0 c:/program files/microchip/xc32/v4.00/bin/bin/../../lib/gcc/pic32c/8.3.1/../../../../pic32c/lib/thumb/v7e-m+fp/hard\libg-musl.a(__fmt_fp.o)
 .bss           0x00000000        0x0 c:/program files/microchip/xc32/v4.00/bin/bin/../../lib/gcc/pic32c/8.3.1/../../../../pic32c/lib/thumb/v7e-m+fp/hard\libg-musl.a(__fmt_fp.o)
 .xc_stack_usage
                0x00000000       0x16 c:/program files/microchip/xc32/v4.00/bin/bin/../../lib/gcc/pic32c/8.3.1/../../../../pic32c/lib/thumb/v7e-m+fp/hard\libg-musl.a(__fmt_fp.o)
 .xc_stack_usage.hdr
                0x00000000        0xe c:/program files/microchip/xc32/v4.00/bin/bin/../../lib/gcc/pic32c/8.3.1/../../../../pic32c/lib/thumb/v7e-m+fp/hard\libg-musl.a(__fmt_fp.o)
 .text          0x00000000        0x0 c:/program files/microchip/xc32/v4.00/bin/bin/../../lib/gcc/pic32c/8.3.1/../../../../pic32c/lib/thumb/v7e-m+fp/hard\libg-musl.a(__fmt_o.o)
 .data          0x00000000        0x0 c:/program files/microchip/xc32/v4.00/bin/bin/../../lib/gcc/pic32c/8.3.1/../../../../pic32c/lib/thumb/v7e-m+fp/hard\libg-musl.a(__fmt_o.o)
 .bss           0x00000000        0x0 c:/program files/microchip/xc32/v4.00/bin/bin/../../lib/gcc/pic32c/8.3.1/../../../../pic32c/lib/thumb/v7e-m+fp/hard\libg-musl.a(__fmt_o.o)
 .xc_stack_usage
                0x00000000       0x15 c:/program files/microchip/xc32/v4.00/bin/bin/../../lib/gcc/pic32c/8.3.1/../../../../pic32c/lib/thumb/v7e-m+fp/hard\libg-musl.a(__fmt_o.o)
 .xc_stack_usage.hdr
                0x00000000        0xe c:/program files/microchip/xc32/v4.00/bin/bin/../../lib/gcc/pic32c/8.3.1/../../../../pic32c/lib/thumb/v7e-m+fp/hard\libg-musl.a(__fmt_o.o)
 .text          0x00000000        0x0 c:/program files/microchip/xc32/v4.00/bin/bin/../../lib/gcc/pic32c/8.3.1/../../../../pic32c/lib/thumb/v7e-m+fp/hard\libg-musl.a(__fmt_s.o)
 .data          0x00000000        0x0 c:/program files/microchip/xc32/v4.00/bin/bin/../../lib/gcc/pic32c/8.3.1/../../../../pic32c/lib/thumb/v7e-m+fp/hard\libg-musl.a(__fmt_s.o)
 .bss           0x00000000        0x0 c:/program files/microchip/xc32/v4.00/bin/bin/../../lib/gcc/pic32c/8.3.1/../../../../pic32c/lib/thumb/v7e-m+fp/hard\libg-musl.a(__fmt_s.o)
 .xc_stack_usage
                0x00000000       0x15 c:/program files/microchip/xc32/v4.00/bin/bin/../../lib/gcc/pic32c/8.3.1/../../../../pic32c/lib/thumb/v7e-m+fp/hard\libg-musl.a(__fmt_s.o)
 .xc_stack_usage.hdr
                0x00000000        0xe c:/program files/microchip/xc32/v4.00/bin/bin/../../lib/gcc/pic32c/8.3.1/../../../../pic32c/lib/thumb/v7e-m+fp/hard\libg-musl.a(__fmt_s.o)
 .text          0x00000000        0x0 c:/program files/microchip/xc32/v4.00/bin/bin/../../lib/gcc/pic32c/8.3.1/../../../../pic32c/lib/thumb/v7e-m+fp/hard\libg-musl.a(__fmt_u.o)
 .data          0x00000000        0x0 c:/program files/microchip/xc32/v4.00/bin/bin/../../lib/gcc/pic32c/8.3.1/../../../../pic32c/lib/thumb/v7e-m+fp/hard\libg-musl.a(__fmt_u.o)
 .bss           0x00000000        0x0 c:/program files/microchip/xc32/v4.00/bin/bin/../../lib/gcc/pic32c/8.3.1/../../../../pic32c/lib/thumb/v7e-m+fp/hard\libg-musl.a(__fmt_u.o)
 .xc_stack_usage
                0x00000000       0x2a c:/program files/microchip/xc32/v4.00/bin/bin/../../lib/gcc/pic32c/8.3.1/../../../../pic32c/lib/thumb/v7e-m+fp/hard\libg-musl.a(__fmt_u.o)
 .xc_stack_usage.hdr
                0x00000000        0xe c:/program files/microchip/xc32/v4.00/bin/bin/../../lib/gcc/pic32c/8.3.1/../../../../pic32c/lib/thumb/v7e-m+fp/hard\libg-musl.a(__fmt_u.o)
 .text          0x00000000        0x0 c:/program files/microchip/xc32/v4.00/bin/bin/../../lib/gcc/pic32c/8.3.1/../../../../pic32c/lib/thumb/v7e-m+fp/hard\libg-musl.a(__fmt_x.o)
 .data          0x00000000        0x0 c:/program files/microchip/xc32/v4.00/bin/bin/../../lib/gcc/pic32c/8.3.1/../../../../pic32c/lib/thumb/v7e-m+fp/hard\libg-musl.a(__fmt_x.o)
 .bss           0x00000000        0x0 c:/program files/microchip/xc32/v4.00/bin/bin/../../lib/gcc/pic32c/8.3.1/../../../../pic32c/lib/thumb/v7e-m+fp/hard\libg-musl.a(__fmt_x.o)
 .xc_stack_usage
                0x00000000       0x15 c:/program files/microchip/xc32/v4.00/bin/bin/../../lib/gcc/pic32c/8.3.1/../../../../pic32c/lib/thumb/v7e-m+fp/hard\libg-musl.a(__fmt_x.o)
 .xc_stack_usage.hdr
                0x00000000        0xe c:/program files/microchip/xc32/v4.00/bin/bin/../../lib/gcc/pic32c/8.3.1/../../../../pic32c/lib/thumb/v7e-m+fp/hard\libg-musl.a(__fmt_x.o)
 .text          0x00000000        0x0 c:/program files/microchip/xc32/v4.00/bin/bin/../../lib/gcc/pic32c/8.3.1/../../../../pic32c/lib/thumb/v7e-m+fp/hard\libg-musl.a(__fopen.o)
 .data          0x00000000        0x0 c:/program files/microchip/xc32/v4.00/bin/bin/../../lib/gcc/pic32c/8.3.1/../../../../pic32c/lib/thumb/v7e-m+fp/hard\libg-musl.a(__fopen.o)
 .bss           0x00000000        0x0 c:/program files/microchip/xc32/v4.00/bin/bin/../../lib/gcc/pic32c/8.3.1/../../../../pic32c/lib/thumb/v7e-m+fp/hard\libg-musl.a(__fopen.o)
 .xc_stack_usage
                0x00000000       0x43 c:/program files/microchip/xc32/v4.00/bin/bin/../../lib/gcc/pic32c/8.3.1/../../../../pic32c/lib/thumb/v7e-m+fp/hard\libg-musl.a(__fopen.o)
 .text.__dummy  0x00000000        0x6 c:/program files/microchip/xc32/v4.00/bin/bin/../../lib/gcc/pic32c/8.3.1/../../../../pic32c/lib/thumb/v7e-m+fp/hard\libg-musl.a(__fopen.o)
 .text.__fopen_std
                0x00000000       0x30 c:/program files/microchip/xc32/v4.00/bin/bin/../../lib/gcc/pic32c/8.3.1/../../../../pic32c/lib/thumb/v7e-m+fp/hard\libg-musl.a(__fopen.o)
 .text.__fopen  0x00000000        0x8 c:/program files/microchip/xc32/v4.00/bin/bin/../../lib/gcc/pic32c/8.3.1/../../../../pic32c/lib/thumb/v7e-m+fp/hard\libg-musl.a(__fopen.o)
 .xc_stack_usage.hdr
                0x00000000        0xe c:/program files/microchip/xc32/v4.00/bin/bin/../../lib/gcc/pic32c/8.3.1/../../../../pic32c/lib/thumb/v7e-m+fp/hard\libg-musl.a(__fopen.o)
 .debug_info    0x00000000      0x880 c:/program files/microchip/xc32/v4.00/bin/bin/../../lib/gcc/pic32c/8.3.1/../../../../pic32c/lib/thumb/v7e-m+fp/hard\libg-musl.a(__fopen.o)
 .debug_abbrev  0x00000000      0x18b c:/program files/microchip/xc32/v4.00/bin/bin/../../lib/gcc/pic32c/8.3.1/../../../../pic32c/lib/thumb/v7e-m+fp/hard\libg-musl.a(__fopen.o)
 .debug_loc     0x00000000       0x94 c:/program files/microchip/xc32/v4.00/bin/bin/../../lib/gcc/pic32c/8.3.1/../../../../pic32c/lib/thumb/v7e-m+fp/hard\libg-musl.a(__fopen.o)
 .debug_aranges
                0x00000000       0x30 c:/program files/microchip/xc32/v4.00/bin/bin/../../lib/gcc/pic32c/8.3.1/../../../../pic32c/lib/thumb/v7e-m+fp/hard\libg-musl.a(__fopen.o)
 .debug_ranges  0x00000000       0x20 c:/program files/microchip/xc32/v4.00/bin/bin/../../lib/gcc/pic32c/8.3.1/../../../../pic32c/lib/thumb/v7e-m+fp/hard\libg-musl.a(__fopen.o)
 .debug_line    0x00000000      0x2bb c:/program files/microchip/xc32/v4.00/bin/bin/../../lib/gcc/pic32c/8.3.1/../../../../pic32c/lib/thumb/v7e-m+fp/hard\libg-musl.a(__fopen.o)
 .debug_str     0x00000000        0x0 c:/program files/microchip/xc32/v4.00/bin/bin/../../lib/gcc/pic32c/8.3.1/../../../../pic32c/lib/thumb/v7e-m+fp/hard\libg-musl.a(__fopen.o)
 .comment       0x00000000       0x54 c:/program files/microchip/xc32/v4.00/bin/bin/../../lib/gcc/pic32c/8.3.1/../../../../pic32c/lib/thumb/v7e-m+fp/hard\libg-musl.a(__fopen.o)
 .note.GNU-stack
                0x00000000        0x0 c:/program files/microchip/xc32/v4.00/bin/bin/../../lib/gcc/pic32c/8.3.1/../../../../pic32c/lib/thumb/v7e-m+fp/hard\libg-musl.a(__fopen.o)
 .debug_frame   0x00000000       0x50 c:/program files/microchip/xc32/v4.00/bin/bin/../../lib/gcc/pic32c/8.3.1/../../../../pic32c/lib/thumb/v7e-m+fp/hard\libg-musl.a(__fopen.o)
 .ARM.attributes
                0x00000000       0x36 c:/program files/microchip/xc32/v4.00/bin/bin/../../lib/gcc/pic32c/8.3.1/../../../../pic32c/lib/thumb/v7e-m+fp/hard\libg-musl.a(__fopen.o)
 .text          0x00000000        0x0 c:/program files/microchip/xc32/v4.00/bin/bin/../../lib/gcc/pic32c/8.3.1/../../../../pic32c/lib/thumb/v7e-m+fp/hard\libg-musl.a(__fseeko.o)
 .data          0x00000000        0x0 c:/program files/microchip/xc32/v4.00/bin/bin/../../lib/gcc/pic32c/8.3.1/../../../../pic32c/lib/thumb/v7e-m+fp/hard\libg-musl.a(__fseeko.o)
 .bss           0x00000000        0x0 c:/program files/microchip/xc32/v4.00/bin/bin/../../lib/gcc/pic32c/8.3.1/../../../../pic32c/lib/thumb/v7e-m+fp/hard\libg-musl.a(__fseeko.o)
 .xc_stack_usage
                0x00000000       0x16 c:/program files/microchip/xc32/v4.00/bin/bin/../../lib/gcc/pic32c/8.3.1/../../../../pic32c/lib/thumb/v7e-m+fp/hard\libg-musl.a(__fseeko.o)
 .text.__fseeko
                0x00000000       0x10 c:/program files/microchip/xc32/v4.00/bin/bin/../../lib/gcc/pic32c/8.3.1/../../../../pic32c/lib/thumb/v7e-m+fp/hard\libg-musl.a(__fseeko.o)
 .xc_stack_usage.hdr
                0x00000000        0xe c:/program files/microchip/xc32/v4.00/bin/bin/../../lib/gcc/pic32c/8.3.1/../../../../pic32c/lib/thumb/v7e-m+fp/hard\libg-musl.a(__fseeko.o)
 .debug_info    0x00000000      0x81e c:/program files/microchip/xc32/v4.00/bin/bin/../../lib/gcc/pic32c/8.3.1/../../../../pic32c/lib/thumb/v7e-m+fp/hard\libg-musl.a(__fseeko.o)
 .debug_abbrev  0x00000000      0x115 c:/program files/microchip/xc32/v4.00/bin/bin/../../lib/gcc/pic32c/8.3.1/../../../../pic32c/lib/thumb/v7e-m+fp/hard\libg-musl.a(__fseeko.o)
 .debug_loc     0x00000000       0x7e c:/program files/microchip/xc32/v4.00/bin/bin/../../lib/gcc/pic32c/8.3.1/../../../../pic32c/lib/thumb/v7e-m+fp/hard\libg-musl.a(__fseeko.o)
 .debug_aranges
                0x00000000       0x20 c:/program files/microchip/xc32/v4.00/bin/bin/../../lib/gcc/pic32c/8.3.1/../../../../pic32c/lib/thumb/v7e-m+fp/hard\libg-musl.a(__fseeko.o)
 .debug_ranges  0x00000000       0x10 c:/program files/microchip/xc32/v4.00/bin/bin/../../lib/gcc/pic32c/8.3.1/../../../../pic32c/lib/thumb/v7e-m+fp/hard\libg-musl.a(__fseeko.o)
 .debug_line    0x00000000      0x246 c:/program files/microchip/xc32/v4.00/bin/bin/../../lib/gcc/pic32c/8.3.1/../../../../pic32c/lib/thumb/v7e-m+fp/hard\libg-musl.a(__fseeko.o)
 .debug_str     0x00000000        0x0 c:/program files/microchip/xc32/v4.00/bin/bin/../../lib/gcc/pic32c/8.3.1/../../../../pic32c/lib/thumb/v7e-m+fp/hard\libg-musl.a(__fseeko.o)
 .comment       0x00000000       0x54 c:/program files/microchip/xc32/v4.00/bin/bin/../../lib/gcc/pic32c/8.3.1/../../../../pic32c/lib/thumb/v7e-m+fp/hard\libg-musl.a(__fseeko.o)
 .note.GNU-stack
                0x00000000        0x0 c:/program files/microchip/xc32/v4.00/bin/bin/../../lib/gcc/pic32c/8.3.1/../../../../pic32c/lib/thumb/v7e-m+fp/hard\libg-musl.a(__fseeko.o)
 .debug_frame   0x00000000       0x28 c:/program files/microchip/xc32/v4.00/bin/bin/../../lib/gcc/pic32c/8.3.1/../../../../pic32c/lib/thumb/v7e-m+fp/hard\libg-musl.a(__fseeko.o)
 .ARM.attributes
                0x00000000       0x36 c:/program files/microchip/xc32/v4.00/bin/bin/../../lib/gcc/pic32c/8.3.1/../../../../pic32c/lib/thumb/v7e-m+fp/hard\libg-musl.a(__fseeko.o)
 .text          0x00000000        0x0 c:/program files/microchip/xc32/v4.00/bin/bin/../../lib/gcc/pic32c/8.3.1/../../../../pic32c/lib/thumb/v7e-m+fp/hard\libg-musl.a(__ftello.o)
 .data          0x00000000        0x0 c:/program files/microchip/xc32/v4.00/bin/bin/../../lib/gcc/pic32c/8.3.1/../../../../pic32c/lib/thumb/v7e-m+fp/hard\libg-musl.a(__ftello.o)
 .bss           0x00000000        0x0 c:/program files/microchip/xc32/v4.00/bin/bin/../../lib/gcc/pic32c/8.3.1/../../../../pic32c/lib/thumb/v7e-m+fp/hard\libg-musl.a(__ftello.o)
 .xc_stack_usage
                0x00000000       0x2f c:/program files/microchip/xc32/v4.00/bin/bin/../../lib/gcc/pic32c/8.3.1/../../../../pic32c/lib/thumb/v7e-m+fp/hard\libg-musl.a(__ftello.o)
 .text.__dummy  0x00000000       0x20 c:/program files/microchip/xc32/v4.00/bin/bin/../../lib/gcc/pic32c/8.3.1/../../../../pic32c/lib/thumb/v7e-m+fp/hard\libg-musl.a(__ftello.o)
 .text.__ftello_adj
                0x00000000        0x8 c:/program files/microchip/xc32/v4.00/bin/bin/../../lib/gcc/pic32c/8.3.1/../../../../pic32c/lib/thumb/v7e-m+fp/hard\libg-musl.a(__ftello.o)
 .xc_stack_usage.hdr
                0x00000000        0xe c:/program files/microchip/xc32/v4.00/bin/bin/../../lib/gcc/pic32c/8.3.1/../../../../pic32c/lib/thumb/v7e-m+fp/hard\libg-musl.a(__ftello.o)
 .debug_info    0x00000000      0x85f c:/program files/microchip/xc32/v4.00/bin/bin/../../lib/gcc/pic32c/8.3.1/../../../../pic32c/lib/thumb/v7e-m+fp/hard\libg-musl.a(__ftello.o)
 .debug_abbrev  0x00000000      0x131 c:/program files/microchip/xc32/v4.00/bin/bin/../../lib/gcc/pic32c/8.3.1/../../../../pic32c/lib/thumb/v7e-m+fp/hard\libg-musl.a(__ftello.o)
 .debug_loc     0x00000000       0xaf c:/program files/microchip/xc32/v4.00/bin/bin/../../lib/gcc/pic32c/8.3.1/../../../../pic32c/lib/thumb/v7e-m+fp/hard\libg-musl.a(__ftello.o)
 .debug_aranges
                0x00000000       0x28 c:/program files/microchip/xc32/v4.00/bin/bin/../../lib/gcc/pic32c/8.3.1/../../../../pic32c/lib/thumb/v7e-m+fp/hard\libg-musl.a(__ftello.o)
 .debug_ranges  0x00000000       0x18 c:/program files/microchip/xc32/v4.00/bin/bin/../../lib/gcc/pic32c/8.3.1/../../../../pic32c/lib/thumb/v7e-m+fp/hard\libg-musl.a(__ftello.o)
 .debug_line    0x00000000      0x285 c:/program files/microchip/xc32/v4.00/bin/bin/../../lib/gcc/pic32c/8.3.1/../../../../pic32c/lib/thumb/v7e-m+fp/hard\libg-musl.a(__ftello.o)
 .debug_str     0x00000000        0x0 c:/program files/microchip/xc32/v4.00/bin/bin/../../lib/gcc/pic32c/8.3.1/../../../../pic32c/lib/thumb/v7e-m+fp/hard\libg-musl.a(__ftello.o)
 .comment       0x00000000       0x54 c:/program files/microchip/xc32/v4.00/bin/bin/../../lib/gcc/pic32c/8.3.1/../../../../pic32c/lib/thumb/v7e-m+fp/hard\libg-musl.a(__ftello.o)
 .note.GNU-stack
                0x00000000        0x0 c:/program files/microchip/xc32/v4.00/bin/bin/../../lib/gcc/pic32c/8.3.1/../../../../pic32c/lib/thumb/v7e-m+fp/hard\libg-musl.a(__ftello.o)
 .debug_frame   0x00000000       0x44 c:/program files/microchip/xc32/v4.00/bin/bin/../../lib/gcc/pic32c/8.3.1/../../../../pic32c/lib/thumb/v7e-m+fp/hard\libg-musl.a(__ftello.o)
 .ARM.attributes
                0x00000000       0x36 c:/program files/microchip/xc32/v4.00/bin/bin/../../lib/gcc/pic32c/8.3.1/../../../../pic32c/lib/thumb/v7e-m+fp/hard\libg-musl.a(__ftello.o)
 .text          0x00000000        0x0 c:/program files/microchip/xc32/v4.00/bin/bin/../../lib/gcc/pic32c/8.3.1/../../../../pic32c/lib/thumb/v7e-m+fp/hard\libg-musl.a(__fwrite.o)
 .data          0x00000000        0x0 c:/program files/microchip/xc32/v4.00/bin/bin/../../lib/gcc/pic32c/8.3.1/../../../../pic32c/lib/thumb/v7e-m+fp/hard\libg-musl.a(__fwrite.o)
 .bss           0x00000000        0x0 c:/program files/microchip/xc32/v4.00/bin/bin/../../lib/gcc/pic32c/8.3.1/../../../../pic32c/lib/thumb/v7e-m+fp/hard\libg-musl.a(__fwrite.o)
 .xc_stack_usage
                0x00000000       0x36 c:/program files/microchip/xc32/v4.00/bin/bin/../../lib/gcc/pic32c/8.3.1/../../../../pic32c/lib/thumb/v7e-m+fp/hard\libg-musl.a(__fwrite.o)
 .xc_stack_usage.hdr
                0x00000000        0xe c:/program files/microchip/xc32/v4.00/bin/bin/../../lib/gcc/pic32c/8.3.1/../../../../pic32c/lib/thumb/v7e-m+fp/hard\libg-musl.a(__fwrite.o)
 .text          0x00000000        0x0 c:/program files/microchip/xc32/v4.00/bin/bin/../../lib/gcc/pic32c/8.3.1/../../../../pic32c/lib/thumb/v7e-m+fp/hard\libg-musl.a(__pop_float.o)
 .data          0x00000000        0x0 c:/program files/microchip/xc32/v4.00/bin/bin/../../lib/gcc/pic32c/8.3.1/../../../../pic32c/lib/thumb/v7e-m+fp/hard\libg-musl.a(__pop_float.o)
 .bss           0x00000000        0x0 c:/program files/microchip/xc32/v4.00/bin/bin/../../lib/gcc/pic32c/8.3.1/../../../../pic32c/lib/thumb/v7e-m+fp/hard\libg-musl.a(__pop_float.o)
 .xc_stack_usage
                0x00000000       0x19 c:/program files/microchip/xc32/v4.00/bin/bin/../../lib/gcc/pic32c/8.3.1/../../../../pic32c/lib/thumb/v7e-m+fp/hard\libg-musl.a(__pop_float.o)
 .xc_stack_usage.hdr
                0x00000000        0xe c:/program files/microchip/xc32/v4.00/bin/bin/../../lib/gcc/pic32c/8.3.1/../../../../pic32c/lib/thumb/v7e-m+fp/hard\libg-musl.a(__pop_float.o)
 .text          0x00000000        0x0 c:/program files/microchip/xc32/v4.00/bin/bin/../../lib/gcc/pic32c/8.3.1/../../../../pic32c/lib/thumb/v7e-m+fp/hard\libg-musl.a(__pop_int.o)
 .data          0x00000000        0x0 c:/program files/microchip/xc32/v4.00/bin/bin/../../lib/gcc/pic32c/8.3.1/../../../../pic32c/lib/thumb/v7e-m+fp/hard\libg-musl.a(__pop_int.o)
 .bss           0x00000000        0x0 c:/program files/microchip/xc32/v4.00/bin/bin/../../lib/gcc/pic32c/8.3.1/../../../../pic32c/lib/thumb/v7e-m+fp/hard\libg-musl.a(__pop_int.o)
 .xc_stack_usage
                0x00000000       0x17 c:/program files/microchip/xc32/v4.00/bin/bin/../../lib/gcc/pic32c/8.3.1/../../../../pic32c/lib/thumb/v7e-m+fp/hard\libg-musl.a(__pop_int.o)
 .xc_stack_usage.hdr
                0x00000000        0xe c:/program files/microchip/xc32/v4.00/bin/bin/../../lib/gcc/pic32c/8.3.1/../../../../pic32c/lib/thumb/v7e-m+fp/hard\libg-musl.a(__pop_int.o)
 .text          0x00000000        0x0 c:/program files/microchip/xc32/v4.00/bin/bin/../../lib/gcc/pic32c/8.3.1/../../../../pic32c/lib/thumb/v7e-m+fp/hard\libg-musl.a(__pop_ptr.o)
 .data          0x00000000        0x0 c:/program files/microchip/xc32/v4.00/bin/bin/../../lib/gcc/pic32c/8.3.1/../../../../pic32c/lib/thumb/v7e-m+fp/hard\libg-musl.a(__pop_ptr.o)
 .bss           0x00000000        0x0 c:/program files/microchip/xc32/v4.00/bin/bin/../../lib/gcc/pic32c/8.3.1/../../../../pic32c/lib/thumb/v7e-m+fp/hard\libg-musl.a(__pop_ptr.o)
 .xc_stack_usage
                0x00000000       0x17 c:/program files/microchip/xc32/v4.00/bin/bin/../../lib/gcc/pic32c/8.3.1/../../../../pic32c/lib/thumb/v7e-m+fp/hard\libg-musl.a(__pop_ptr.o)
 .xc_stack_usage.hdr
                0x00000000        0xe c:/program files/microchip/xc32/v4.00/bin/bin/../../lib/gcc/pic32c/8.3.1/../../../../pic32c/lib/thumb/v7e-m+fp/hard\libg-musl.a(__pop_ptr.o)
 .text          0x00000000        0x0 c:/program files/microchip/xc32/v4.00/bin/bin/../../lib/gcc/pic32c/8.3.1/../../../../pic32c/lib/thumb/v7e-m+fp/hard\libg-musl.a(toupper.o)
 .data          0x00000000        0x0 c:/program files/microchip/xc32/v4.00/bin/bin/../../lib/gcc/pic32c/8.3.1/../../../../pic32c/lib/thumb/v7e-m+fp/hard\libg-musl.a(toupper.o)
 .bss           0x00000000        0x0 c:/program files/microchip/xc32/v4.00/bin/bin/../../lib/gcc/pic32c/8.3.1/../../../../pic32c/lib/thumb/v7e-m+fp/hard\libg-musl.a(toupper.o)
 .xc_stack_usage
                0x00000000       0x2e c:/program files/microchip/xc32/v4.00/bin/bin/../../lib/gcc/pic32c/8.3.1/../../../../pic32c/lib/thumb/v7e-m+fp/hard\libg-musl.a(toupper.o)
 .text.__toupper_l
                0x00000000        0x4 c:/program files/microchip/xc32/v4.00/bin/bin/../../lib/gcc/pic32c/8.3.1/../../../../pic32c/lib/thumb/v7e-m+fp/hard\libg-musl.a(toupper.o)
 .xc_stack_usage.hdr
                0x00000000        0xe c:/program files/microchip/xc32/v4.00/bin/bin/../../lib/gcc/pic32c/8.3.1/../../../../pic32c/lib/thumb/v7e-m+fp/hard\libg-musl.a(toupper.o)
 .text          0x00000000        0x0 c:/program files/microchip/xc32/v4.00/bin/bin/../../lib/gcc/pic32c/8.3.1/../../../../pic32c/lib/thumb/v7e-m+fp/hard\libm-emfloat.a(lib_a-_FLOOR.o)
 .data          0x00000000        0x0 c:/program files/microchip/xc32/v4.00/bin/bin/../../lib/gcc/pic32c/8.3.1/../../../../pic32c/lib/thumb/v7e-m+fp/hard\libm-emfloat.a(lib_a-_FLOOR.o)
 .bss           0x00000000        0x0 c:/program files/microchip/xc32/v4.00/bin/bin/../../lib/gcc/pic32c/8.3.1/../../../../pic32c/lib/thumb/v7e-m+fp/hard\libm-emfloat.a(lib_a-_FLOOR.o)
 .xc_stack_usage
                0x00000000      0x298 c:/program files/microchip/xc32/v4.00/bin/bin/../../lib/gcc/pic32c/8.3.1/../../../../pic32c/lib/thumb/v7e-m+fp/hard\libm-emfloat.a(lib_a-_FLOOR.o)
 .text.__SEGGER_RTL_float64_cdiv
                0x00000000      0x334 c:/program files/microchip/xc32/v4.00/bin/bin/../../lib/gcc/pic32c/8.3.1/../../../../pic32c/lib/thumb/v7e-m+fp/hard\libm-emfloat.a(lib_a-_FLOOR.o)
 .text.__SEGGER_RTL_float64_cmplx
                0x00000000       0x28 c:/program files/microchip/xc32/v4.00/bin/bin/../../lib/gcc/pic32c/8.3.1/../../../../pic32c/lib/thumb/v7e-m+fp/hard\libm-emfloat.a(lib_a-_FLOOR.o)
 .text.__mulsc3
                0x00000000      0x2b0 c:/program files/microchip/xc32/v4.00/bin/bin/../../lib/gcc/pic32c/8.3.1/../../../../pic32c/lib/thumb/v7e-m+fp/hard\libm-emfloat.a(lib_a-_FLOOR.o)
 .text.__divdc3
                0x00000000       0x2c c:/program files/microchip/xc32/v4.00/bin/bin/../../lib/gcc/pic32c/8.3.1/../../../../pic32c/lib/thumb/v7e-m+fp/hard\libm-emfloat.a(lib_a-_FLOOR.o)
 .text.__SEGGER_RTL_float32_isnan
                0x00000000       0x10 c:/program files/microchip/xc32/v4.00/bin/bin/../../lib/gcc/pic32c/8.3.1/../../../../pic32c/lib/thumb/v7e-m+fp/hard\libm-emfloat.a(lib_a-_FLOOR.o)
 .text.__SEGGER_RTL_float32_isinf
                0x00000000       0x14 c:/program files/microchip/xc32/v4.00/bin/bin/../../lib/gcc/pic32c/8.3.1/../../../../pic32c/lib/thumb/v7e-m+fp/hard\libm-emfloat.a(lib_a-_FLOOR.o)
 .text.__SEGGER_RTL_float32_isfinite
                0x00000000       0x14 c:/program files/microchip/xc32/v4.00/bin/bin/../../lib/gcc/pic32c/8.3.1/../../../../pic32c/lib/thumb/v7e-m+fp/hard\libm-emfloat.a(lib_a-_FLOOR.o)
 .text.__SEGGER_RTL_float32_isnormal
                0x00000000       0x18 c:/program files/microchip/xc32/v4.00/bin/bin/../../lib/gcc/pic32c/8.3.1/../../../../pic32c/lib/thumb/v7e-m+fp/hard\libm-emfloat.a(lib_a-_FLOOR.o)
 .text.__SEGGER_RTL_float32_signbit
                0x00000000        0x8 c:/program files/microchip/xc32/v4.00/bin/bin/../../lib/gcc/pic32c/8.3.1/../../../../pic32c/lib/thumb/v7e-m+fp/hard\libm-emfloat.a(lib_a-_FLOOR.o)
 .text.__SEGGER_RTL_float32_classify
                0x00000000       0x3c c:/program files/microchip/xc32/v4.00/bin/bin/../../lib/gcc/pic32c/8.3.1/../../../../pic32c/lib/thumb/v7e-m+fp/hard\libm-emfloat.a(lib_a-_FLOOR.o)
 .text.__SEGGER_RTL_float64_isnan
                0x00000000       0x28 c:/program files/microchip/xc32/v4.00/bin/bin/../../lib/gcc/pic32c/8.3.1/../../../../pic32c/lib/thumb/v7e-m+fp/hard\libm-emfloat.a(lib_a-_FLOOR.o)
 .text.__SEGGER_RTL_float64_isinf
                0x00000000       0x20 c:/program files/microchip/xc32/v4.00/bin/bin/../../lib/gcc/pic32c/8.3.1/../../../../pic32c/lib/thumb/v7e-m+fp/hard\libm-emfloat.a(lib_a-_FLOOR.o)
 .text.__SEGGER_RTL_float64_isfinite
                0x00000000       0x14 c:/program files/microchip/xc32/v4.00/bin/bin/../../lib/gcc/pic32c/8.3.1/../../../../pic32c/lib/thumb/v7e-m+fp/hard\libm-emfloat.a(lib_a-_FLOOR.o)
 .text.__SEGGER_RTL_float64_isnormal
                0x00000000       0x34 c:/program files/microchip/xc32/v4.00/bin/bin/../../lib/gcc/pic32c/8.3.1/../../../../pic32c/lib/thumb/v7e-m+fp/hard\libm-emfloat.a(lib_a-_FLOOR.o)
 .text.__SEGGER_RTL_float64_signbit
                0x00000000        0x8 c:/program files/microchip/xc32/v4.00/bin/bin/../../lib/gcc/pic32c/8.3.1/../../../../pic32c/lib/thumb/v7e-m+fp/hard\libm-emfloat.a(lib_a-_FLOOR.o)
 .text.__SEGGER_RTL_float64_classify
                0x00000000       0x70 c:/program files/microchip/xc32/v4.00/bin/bin/../../lib/gcc/pic32c/8.3.1/../../../../pic32c/lib/thumb/v7e-m+fp/hard\libm-emfloat.a(lib_a-_FLOOR.o)
 .text.floorl   0x00000000        0x8 c:/program files/microchip/xc32/v4.00/bin/bin/../../lib/gcc/pic32c/8.3.1/../../../../pic32c/lib/thumb/v7e-m+fp/hard\libm-emfloat.a(lib_a-_FLOOR.o)
 .xc_stack_usage.hdr
                0x00000000        0xe c:/program files/microchip/xc32/v4.00/bin/bin/../../lib/gcc/pic32c/8.3.1/../../../../pic32c/lib/thumb/v7e-m+fp/hard\libm-emfloat.a(lib_a-_FLOOR.o)
 .text          0x00000000        0x0 c:/program files/microchip/xc32/v4.00/bin/bin/../../lib/gcc/pic32c/8.3.1/../../../../pic32c/lib/thumb/v7e-m+fp/hard\libm-emfloat.a(lib_a-_FMA.o)
 .data          0x00000000        0x0 c:/program files/microchip/xc32/v4.00/bin/bin/../../lib/gcc/pic32c/8.3.1/../../../../pic32c/lib/thumb/v7e-m+fp/hard\libm-emfloat.a(lib_a-_FMA.o)
 .bss           0x00000000        0x0 c:/program files/microchip/xc32/v4.00/bin/bin/../../lib/gcc/pic32c/8.3.1/../../../../pic32c/lib/thumb/v7e-m+fp/hard\libm-emfloat.a(lib_a-_FMA.o)
 .xc_stack_usage
                0x00000000      0x294 c:/program files/microchip/xc32/v4.00/bin/bin/../../lib/gcc/pic32c/8.3.1/../../../../pic32c/lib/thumb/v7e-m+fp/hard\libm-emfloat.a(lib_a-_FMA.o)
 .text.__SEGGER_RTL_float64_cdiv
                0x00000000      0x334 c:/program files/microchip/xc32/v4.00/bin/bin/../../lib/gcc/pic32c/8.3.1/../../../../pic32c/lib/thumb/v7e-m+fp/hard\libm-emfloat.a(lib_a-_FMA.o)
 .text.__SEGGER_RTL_float64_cmplx
                0x00000000       0x28 c:/program files/microchip/xc32/v4.00/bin/bin/../../lib/gcc/pic32c/8.3.1/../../../../pic32c/lib/thumb/v7e-m+fp/hard\libm-emfloat.a(lib_a-_FMA.o)
 .text.__mulsc3
                0x00000000      0x2b0 c:/program files/microchip/xc32/v4.00/bin/bin/../../lib/gcc/pic32c/8.3.1/../../../../pic32c/lib/thumb/v7e-m+fp/hard\libm-emfloat.a(lib_a-_FMA.o)
 .text.__divdc3
                0x00000000       0x2c c:/program files/microchip/xc32/v4.00/bin/bin/../../lib/gcc/pic32c/8.3.1/../../../../pic32c/lib/thumb/v7e-m+fp/hard\libm-emfloat.a(lib_a-_FMA.o)
 .text.__SEGGER_RTL_float32_isnan
                0x00000000       0x10 c:/program files/microchip/xc32/v4.00/bin/bin/../../lib/gcc/pic32c/8.3.1/../../../../pic32c/lib/thumb/v7e-m+fp/hard\libm-emfloat.a(lib_a-_FMA.o)
 .text.__SEGGER_RTL_float32_isinf
                0x00000000       0x14 c:/program files/microchip/xc32/v4.00/bin/bin/../../lib/gcc/pic32c/8.3.1/../../../../pic32c/lib/thumb/v7e-m+fp/hard\libm-emfloat.a(lib_a-_FMA.o)
 .text.__SEGGER_RTL_float32_isfinite
                0x00000000       0x14 c:/program files/microchip/xc32/v4.00/bin/bin/../../lib/gcc/pic32c/8.3.1/../../../../pic32c/lib/thumb/v7e-m+fp/hard\libm-emfloat.a(lib_a-_FMA.o)
 .text.__SEGGER_RTL_float32_isnormal
                0x00000000       0x18 c:/program files/microchip/xc32/v4.00/bin/bin/../../lib/gcc/pic32c/8.3.1/../../../../pic32c/lib/thumb/v7e-m+fp/hard\libm-emfloat.a(lib_a-_FMA.o)
 .text.__SEGGER_RTL_float32_signbit
                0x00000000        0x8 c:/program files/microchip/xc32/v4.00/bin/bin/../../lib/gcc/pic32c/8.3.1/../../../../pic32c/lib/thumb/v7e-m+fp/hard\libm-emfloat.a(lib_a-_FMA.o)
 .text.__SEGGER_RTL_float32_classify
                0x00000000       0x3c c:/program files/microchip/xc32/v4.00/bin/bin/../../lib/gcc/pic32c/8.3.1/../../../../pic32c/lib/thumb/v7e-m+fp/hard\libm-emfloat.a(lib_a-_FMA.o)
 .text.__SEGGER_RTL_float64_isnan
                0x00000000       0x28 c:/program files/microchip/xc32/v4.00/bin/bin/../../lib/gcc/pic32c/8.3.1/../../../../pic32c/lib/thumb/v7e-m+fp/hard\libm-emfloat.a(lib_a-_FMA.o)
 .text.__SEGGER_RTL_float64_isinf
                0x00000000       0x20 c:/program files/microchip/xc32/v4.00/bin/bin/../../lib/gcc/pic32c/8.3.1/../../../../pic32c/lib/thumb/v7e-m+fp/hard\libm-emfloat.a(lib_a-_FMA.o)
 .text.__SEGGER_RTL_float64_isfinite
                0x00000000       0x14 c:/program files/microchip/xc32/v4.00/bin/bin/../../lib/gcc/pic32c/8.3.1/../../../../pic32c/lib/thumb/v7e-m+fp/hard\libm-emfloat.a(lib_a-_FMA.o)
 .text.__SEGGER_RTL_float64_isnormal
                0x00000000       0x34 c:/program files/microchip/xc32/v4.00/bin/bin/../../lib/gcc/pic32c/8.3.1/../../../../pic32c/lib/thumb/v7e-m+fp/hard\libm-emfloat.a(lib_a-_FMA.o)
 .text.__SEGGER_RTL_float64_signbit
                0x00000000        0x8 c:/program files/microchip/xc32/v4.00/bin/bin/../../lib/gcc/pic32c/8.3.1/../../../../pic32c/lib/thumb/v7e-m+fp/hard\libm-emfloat.a(lib_a-_FMA.o)
 .text.__SEGGER_RTL_float64_classify
                0x00000000       0x70 c:/program files/microchip/xc32/v4.00/bin/bin/../../lib/gcc/pic32c/8.3.1/../../../../pic32c/lib/thumb/v7e-m+fp/hard\libm-emfloat.a(lib_a-_FMA.o)
 .text.fmal     0x00000000        0x8 c:/program files/microchip/xc32/v4.00/bin/bin/../../lib/gcc/pic32c/8.3.1/../../../../pic32c/lib/thumb/v7e-m+fp/hard\libm-emfloat.a(lib_a-_FMA.o)
 .xc_stack_usage.hdr
                0x00000000        0xe c:/program files/microchip/xc32/v4.00/bin/bin/../../lib/gcc/pic32c/8.3.1/../../../../pic32c/lib/thumb/v7e-m+fp/hard\libm-emfloat.a(lib_a-_FMA.o)
 .text          0x00000000        0x0 c:/program files/microchip/xc32/v4.00/bin/bin/../../lib/gcc/pic32c/8.3.1/../../../../pic32c/lib/thumb/v7e-m+fp/hard\libm-emfloat.a(floatasmops_arm.o)
 .data          0x00000000        0x0 c:/program files/microchip/xc32/v4.00/bin/bin/../../lib/gcc/pic32c/8.3.1/../../../../pic32c/lib/thumb/v7e-m+fp/hard\libm-emfloat.a(floatasmops_arm.o)
 .bss           0x00000000        0x0 c:/program files/microchip/xc32/v4.00/bin/bin/../../lib/gcc/pic32c/8.3.1/../../../../pic32c/lib/thumb/v7e-m+fp/hard\libm-emfloat.a(floatasmops_arm.o)
 .rodata.__aeabi_ddiv_reciprocal_table
                0x00000000      0x180 c:/program files/microchip/xc32/v4.00/bin/bin/../../lib/gcc/pic32c/8.3.1/../../../../pic32c/lib/thumb/v7e-m+fp/hard\libm-emfloat.a(floatasmops_arm.o)
 .text.__aeabi_fadd
                0x00000000       0x14 c:/program files/microchip/xc32/v4.00/bin/bin/../../lib/gcc/pic32c/8.3.1/../../../../pic32c/lib/thumb/v7e-m+fp/hard\libm-emfloat.a(floatasmops_arm.o)
 .text.__aeabi_fsub
                0x00000000       0x14 c:/program files/microchip/xc32/v4.00/bin/bin/../../lib/gcc/pic32c/8.3.1/../../../../pic32c/lib/thumb/v7e-m+fp/hard\libm-emfloat.a(floatasmops_arm.o)
 .text.__aeabi_frsub
                0x00000000       0x14 c:/program files/microchip/xc32/v4.00/bin/bin/../../lib/gcc/pic32c/8.3.1/../../../../pic32c/lib/thumb/v7e-m+fp/hard\libm-emfloat.a(floatasmops_arm.o)
 .text.__aeabi_drsub
                0x00000000        0x8 c:/program files/microchip/xc32/v4.00/bin/bin/../../lib/gcc/pic32c/8.3.1/../../../../pic32c/lib/thumb/v7e-m+fp/hard\libm-emfloat.a(floatasmops_arm.o)
 .text.__aeabi_fmul
                0x00000000       0x14 c:/program files/microchip/xc32/v4.00/bin/bin/../../lib/gcc/pic32c/8.3.1/../../../../pic32c/lib/thumb/v7e-m+fp/hard\libm-emfloat.a(floatasmops_arm.o)
 .text.__aeabi_fdiv
                0x00000000       0x14 c:/program files/microchip/xc32/v4.00/bin/bin/../../lib/gcc/pic32c/8.3.1/../../../../pic32c/lib/thumb/v7e-m+fp/hard\libm-emfloat.a(floatasmops_arm.o)
 .text.__aeabi_fcmple
                0x00000000       0x18 c:/program files/microchip/xc32/v4.00/bin/bin/../../lib/gcc/pic32c/8.3.1/../../../../pic32c/lib/thumb/v7e-m+fp/hard\libm-emfloat.a(floatasmops_arm.o)
 .text.__aeabi_dcmple
                0x00000000       0x3c c:/program files/microchip/xc32/v4.00/bin/bin/../../lib/gcc/pic32c/8.3.1/../../../../pic32c/lib/thumb/v7e-m+fp/hard\libm-emfloat.a(floatasmops_arm.o)
 .text.__aeabi_fcmpeq
                0x00000000       0x18 c:/program files/microchip/xc32/v4.00/bin/bin/../../lib/gcc/pic32c/8.3.1/../../../../pic32c/lib/thumb/v7e-m+fp/hard\libm-emfloat.a(floatasmops_arm.o)
 .text.__aeabi_fcmpge
                0x00000000       0x18 c:/program files/microchip/xc32/v4.00/bin/bin/../../lib/gcc/pic32c/8.3.1/../../../../pic32c/lib/thumb/v7e-m+fp/hard\libm-emfloat.a(floatasmops_arm.o)
 .text.__aeabi_dcmpge
                0x00000000       0x3c c:/program files/microchip/xc32/v4.00/bin/bin/../../lib/gcc/pic32c/8.3.1/../../../../pic32c/lib/thumb/v7e-m+fp/hard\libm-emfloat.a(floatasmops_arm.o)
 .text.__aeabi_fcmpgt
                0x00000000       0x18 c:/program files/microchip/xc32/v4.00/bin/bin/../../lib/gcc/pic32c/8.3.1/../../../../pic32c/lib/thumb/v7e-m+fp/hard\libm-emfloat.a(floatasmops_arm.o)
 .text.__aeabi_fcmplt
                0x00000000       0x18 c:/program files/microchip/xc32/v4.00/bin/bin/../../lib/gcc/pic32c/8.3.1/../../../../pic32c/lib/thumb/v7e-m+fp/hard\libm-emfloat.a(floatasmops_arm.o)
 .text.__aeabi_fcmpun
                0x00000000       0x18 c:/program files/microchip/xc32/v4.00/bin/bin/../../lib/gcc/pic32c/8.3.1/../../../../pic32c/lib/thumb/v7e-m+fp/hard\libm-emfloat.a(floatasmops_arm.o)
 .text.__aeabi_dcmpun
                0x00000000       0x28 c:/program files/microchip/xc32/v4.00/bin/bin/../../lib/gcc/pic32c/8.3.1/../../../../pic32c/lib/thumb/v7e-m+fp/hard\libm-emfloat.a(floatasmops_arm.o)
 .text.__aeabi_cfcmpeq
                0x00000000       0x28 c:/program files/microchip/xc32/v4.00/bin/bin/../../lib/gcc/pic32c/8.3.1/../../../../pic32c/lib/thumb/v7e-m+fp/hard\libm-emfloat.a(floatasmops_arm.o)
 .text.__aeabi_cdcmpeq
                0x00000000       0x10 c:/program files/microchip/xc32/v4.00/bin/bin/../../lib/gcc/pic32c/8.3.1/../../../../pic32c/lib/thumb/v7e-m+fp/hard\libm-emfloat.a(floatasmops_arm.o)
 .text.__aeabi_cfcmple
                0x00000000       0x14 c:/program files/microchip/xc32/v4.00/bin/bin/../../lib/gcc/pic32c/8.3.1/../../../../pic32c/lib/thumb/v7e-m+fp/hard\libm-emfloat.a(floatasmops_arm.o)
 .text.__aeabi_cdcmple
                0x00000000       0x10 c:/program files/microchip/xc32/v4.00/bin/bin/../../lib/gcc/pic32c/8.3.1/../../../../pic32c/lib/thumb/v7e-m+fp/hard\libm-emfloat.a(floatasmops_arm.o)
 .text.__aeabi_cfrcmple
                0x00000000       0x14 c:/program files/microchip/xc32/v4.00/bin/bin/../../lib/gcc/pic32c/8.3.1/../../../../pic32c/lib/thumb/v7e-m+fp/hard\libm-emfloat.a(floatasmops_arm.o)
 .text.__aeabi_cdrcmple
                0x00000000       0x1c c:/program files/microchip/xc32/v4.00/bin/bin/../../lib/gcc/pic32c/8.3.1/../../../../pic32c/lib/thumb/v7e-m+fp/hard\libm-emfloat.a(floatasmops_arm.o)
 .text.__aeabi_cfcmp_impl
                0x00000000       0x22 c:/program files/microchip/xc32/v4.00/bin/bin/../../lib/gcc/pic32c/8.3.1/../../../../pic32c/lib/thumb/v7e-m+fp/hard\libm-emfloat.a(floatasmops_arm.o)
 .text.__aeabi_cdcmp_impl
                0x00000000       0x64 c:/program files/microchip/xc32/v4.00/bin/bin/../../lib/gcc/pic32c/8.3.1/../../../../pic32c/lib/thumb/v7e-m+fp/hard\libm-emfloat.a(floatasmops_arm.o)
 .text.__aeabi_f2iz
                0x00000000       0x10 c:/program files/microchip/xc32/v4.00/bin/bin/../../lib/gcc/pic32c/8.3.1/../../../../pic32c/lib/thumb/v7e-m+fp/hard\libm-emfloat.a(floatasmops_arm.o)
 .text.__aeabi_f2lz
                0x00000000       0x74 c:/program files/microchip/xc32/v4.00/bin/bin/../../lib/gcc/pic32c/8.3.1/../../../../pic32c/lib/thumb/v7e-m+fp/hard\libm-emfloat.a(floatasmops_arm.o)
 .text.__aeabi_d2lz
                0x00000000       0x80 c:/program files/microchip/xc32/v4.00/bin/bin/../../lib/gcc/pic32c/8.3.1/../../../../pic32c/lib/thumb/v7e-m+fp/hard\libm-emfloat.a(floatasmops_arm.o)
 .text.__aeabi_f2uiz
                0x00000000       0x10 c:/program files/microchip/xc32/v4.00/bin/bin/../../lib/gcc/pic32c/8.3.1/../../../../pic32c/lib/thumb/v7e-m+fp/hard\libm-emfloat.a(floatasmops_arm.o)
 .text.__aeabi_d2uiz
                0x00000000       0x24 c:/program files/microchip/xc32/v4.00/bin/bin/../../lib/gcc/pic32c/8.3.1/../../../../pic32c/lib/thumb/v7e-m+fp/hard\libm-emfloat.a(floatasmops_arm.o)
 .text.__aeabi_f2ulz
                0x00000000       0x40 c:/program files/microchip/xc32/v4.00/bin/bin/../../lib/gcc/pic32c/8.3.1/../../../../pic32c/lib/thumb/v7e-m+fp/hard\libm-emfloat.a(floatasmops_arm.o)
 .text.__aeabi_d2ulz
                0x00000000       0x40 c:/program files/microchip/xc32/v4.00/bin/bin/../../lib/gcc/pic32c/8.3.1/../../../../pic32c/lib/thumb/v7e-m+fp/hard\libm-emfloat.a(floatasmops_arm.o)
 .text.__aeabi_i2f
                0x00000000       0x10 c:/program files/microchip/xc32/v4.00/bin/bin/../../lib/gcc/pic32c/8.3.1/../../../../pic32c/lib/thumb/v7e-m+fp/hard\libm-emfloat.a(floatasmops_arm.o)
 .text.__aeabi_i2d
                0x00000000       0x28 c:/program files/microchip/xc32/v4.00/bin/bin/../../lib/gcc/pic32c/8.3.1/../../../../pic32c/lib/thumb/v7e-m+fp/hard\libm-emfloat.a(floatasmops_arm.o)
 .text.__aeabi_l2f
                0x00000000       0x64 c:/program files/microchip/xc32/v4.00/bin/bin/../../lib/gcc/pic32c/8.3.1/../../../../pic32c/lib/thumb/v7e-m+fp/hard\libm-emfloat.a(floatasmops_arm.o)
 .text.__aeabi_l2d
                0x00000000       0x68 c:/program files/microchip/xc32/v4.00/bin/bin/../../lib/gcc/pic32c/8.3.1/../../../../pic32c/lib/thumb/v7e-m+fp/hard\libm-emfloat.a(floatasmops_arm.o)
 .text.__aeabi_ui2f
                0x00000000       0x10 c:/program files/microchip/xc32/v4.00/bin/bin/../../lib/gcc/pic32c/8.3.1/../../../../pic32c/lib/thumb/v7e-m+fp/hard\libm-emfloat.a(floatasmops_arm.o)
 .text.__aeabi_ui2d
                0x00000000       0x1c c:/program files/microchip/xc32/v4.00/bin/bin/../../lib/gcc/pic32c/8.3.1/../../../../pic32c/lib/thumb/v7e-m+fp/hard\libm-emfloat.a(floatasmops_arm.o)
 .text.__aeabi_ul2f
                0x00000000       0x54 c:/program files/microchip/xc32/v4.00/bin/bin/../../lib/gcc/pic32c/8.3.1/../../../../pic32c/lib/thumb/v7e-m+fp/hard\libm-emfloat.a(floatasmops_arm.o)
 .text.__aeabi_ul2d
                0x00000000       0x5c c:/program files/microchip/xc32/v4.00/bin/bin/../../lib/gcc/pic32c/8.3.1/../../../../pic32c/lib/thumb/v7e-m+fp/hard\libm-emfloat.a(floatasmops_arm.o)
 .text.__aeabi_f2d
                0x00000000       0x34 c:/program files/microchip/xc32/v4.00/bin/bin/../../lib/gcc/pic32c/8.3.1/../../../../pic32c/lib/thumb/v7e-m+fp/hard\libm-emfloat.a(floatasmops_arm.o)
 .text.__aeabi_d2f
                0x00000000       0x4c c:/program files/microchip/xc32/v4.00/bin/bin/../../lib/gcc/pic32c/8.3.1/../../../../pic32c/lib/thumb/v7e-m+fp/hard\libm-emfloat.a(floatasmops_arm.o)
 .xc_stack_usage.hdr
                0x00000000        0xe c:/program files/microchip/xc32/v4.00/bin/bin/../../lib/gcc/pic32c/8.3.1/../../../../pic32c/lib/thumb/v7e-m+fp/hard\libm-emfloat.a(floatasmops_arm.o)
 .xc_stack_usage
                0x00000000      0x518 c:/program files/microchip/xc32/v4.00/bin/bin/../../lib/gcc/pic32c/8.3.1/../../../../pic32c/lib/thumb/v7e-m+fp/hard\libm-emfloat.a(floatasmops_arm.o)
 .text          0x00000000        0x0 c:/program files/microchip/xc32/v4.00/bin/bin/../../lib/gcc/pic32c/8.3.1/../../../../pic32c/lib/thumb/v7e-m+fp/hard\libm-emfloat.a(lib_a-_ILOGB.o)
 .data          0x00000000        0x0 c:/program files/microchip/xc32/v4.00/bin/bin/../../lib/gcc/pic32c/8.3.1/../../../../pic32c/lib/thumb/v7e-m+fp/hard\libm-emfloat.a(lib_a-_ILOGB.o)
 .bss           0x00000000        0x0 c:/program files/microchip/xc32/v4.00/bin/bin/../../lib/gcc/pic32c/8.3.1/../../../../pic32c/lib/thumb/v7e-m+fp/hard\libm-emfloat.a(lib_a-_ILOGB.o)
 .xc_stack_usage
                0x00000000      0x298 c:/program files/microchip/xc32/v4.00/bin/bin/../../lib/gcc/pic32c/8.3.1/../../../../pic32c/lib/thumb/v7e-m+fp/hard\libm-emfloat.a(lib_a-_ILOGB.o)
 .text.__SEGGER_RTL_float64_cmplx
                0x00000000       0x28 c:/program files/microchip/xc32/v4.00/bin/bin/../../lib/gcc/pic32c/8.3.1/../../../../pic32c/lib/thumb/v7e-m+fp/hard\libm-emfloat.a(lib_a-_ILOGB.o)
 .text.__mulsc3
                0x00000000      0x2b0 c:/program files/microchip/xc32/v4.00/bin/bin/../../lib/gcc/pic32c/8.3.1/../../../../pic32c/lib/thumb/v7e-m+fp/hard\libm-emfloat.a(lib_a-_ILOGB.o)
 .text.__SEGGER_RTL_float32_isnan
                0x00000000       0x10 c:/program files/microchip/xc32/v4.00/bin/bin/../../lib/gcc/pic32c/8.3.1/../../../../pic32c/lib/thumb/v7e-m+fp/hard\libm-emfloat.a(lib_a-_ILOGB.o)
 .text.__SEGGER_RTL_float32_isinf
                0x00000000       0x14 c:/program files/microchip/xc32/v4.00/bin/bin/../../lib/gcc/pic32c/8.3.1/../../../../pic32c/lib/thumb/v7e-m+fp/hard\libm-emfloat.a(lib_a-_ILOGB.o)
 .text.__SEGGER_RTL_float32_isfinite
                0x00000000       0x14 c:/program files/microchip/xc32/v4.00/bin/bin/../../lib/gcc/pic32c/8.3.1/../../../../pic32c/lib/thumb/v7e-m+fp/hard\libm-emfloat.a(lib_a-_ILOGB.o)
 .text.__SEGGER_RTL_float32_isnormal
                0x00000000       0x18 c:/program files/microchip/xc32/v4.00/bin/bin/../../lib/gcc/pic32c/8.3.1/../../../../pic32c/lib/thumb/v7e-m+fp/hard\libm-emfloat.a(lib_a-_ILOGB.o)
 .text.__SEGGER_RTL_float32_signbit
                0x00000000        0x8 c:/program files/microchip/xc32/v4.00/bin/bin/../../lib/gcc/pic32c/8.3.1/../../../../pic32c/lib/thumb/v7e-m+fp/hard\libm-emfloat.a(lib_a-_ILOGB.o)
 .text.__SEGGER_RTL_float32_classify
                0x00000000       0x3c c:/program files/microchip/xc32/v4.00/bin/bin/../../lib/gcc/pic32c/8.3.1/../../../../pic32c/lib/thumb/v7e-m+fp/hard\libm-emfloat.a(lib_a-_ILOGB.o)
 .text.__SEGGER_RTL_float64_isnan
                0x00000000       0x28 c:/program files/microchip/xc32/v4.00/bin/bin/../../lib/gcc/pic32c/8.3.1/../../../../pic32c/lib/thumb/v7e-m+fp/hard\libm-emfloat.a(lib_a-_ILOGB.o)
 .text.__SEGGER_RTL_float64_isinf
                0x00000000       0x20 c:/program files/microchip/xc32/v4.00/bin/bin/../../lib/gcc/pic32c/8.3.1/../../../../pic32c/lib/thumb/v7e-m+fp/hard\libm-emfloat.a(lib_a-_ILOGB.o)
 .text.__SEGGER_RTL_float64_isfinite
                0x00000000       0x14 c:/program files/microchip/xc32/v4.00/bin/bin/../../lib/gcc/pic32c/8.3.1/../../../../pic32c/lib/thumb/v7e-m+fp/hard\libm-emfloat.a(lib_a-_ILOGB.o)
 .text.__SEGGER_RTL_float64_isnormal
                0x00000000       0x34 c:/program files/microchip/xc32/v4.00/bin/bin/../../lib/gcc/pic32c/8.3.1/../../../../pic32c/lib/thumb/v7e-m+fp/hard\libm-emfloat.a(lib_a-_ILOGB.o)
 .text.__SEGGER_RTL_float64_signbit
                0x00000000        0x8 c:/program files/microchip/xc32/v4.00/bin/bin/../../lib/gcc/pic32c/8.3.1/../../../../pic32c/lib/thumb/v7e-m+fp/hard\libm-emfloat.a(lib_a-_ILOGB.o)
 .text.__SEGGER_RTL_float64_classify
                0x00000000       0x70 c:/program files/microchip/xc32/v4.00/bin/bin/../../lib/gcc/pic32c/8.3.1/../../../../pic32c/lib/thumb/v7e-m+fp/hard\libm-emfloat.a(lib_a-_ILOGB.o)
 .text.ilogb    0x00000000       0x58 c:/program files/microchip/xc32/v4.00/bin/bin/../../lib/gcc/pic32c/8.3.1/../../../../pic32c/lib/thumb/v7e-m+fp/hard\libm-emfloat.a(lib_a-_ILOGB.o)
 .text.__SEGGER_RTL_float64_cdiv
                0x00000000      0x334 c:/program files/microchip/xc32/v4.00/bin/bin/../../lib/gcc/pic32c/8.3.1/../../../../pic32c/lib/thumb/v7e-m+fp/hard\libm-emfloat.a(lib_a-_ILOGB.o)
 .text.__divdc3
                0x00000000       0x2c c:/program files/microchip/xc32/v4.00/bin/bin/../../lib/gcc/pic32c/8.3.1/../../../../pic32c/lib/thumb/v7e-m+fp/hard\libm-emfloat.a(lib_a-_ILOGB.o)
 .text.ilogbl   0x00000000        0x8 c:/program files/microchip/xc32/v4.00/bin/bin/../../lib/gcc/pic32c/8.3.1/../../../../pic32c/lib/thumb/v7e-m+fp/hard\libm-emfloat.a(lib_a-_ILOGB.o)
 .xc_stack_usage.hdr
                0x00000000        0xe c:/program files/microchip/xc32/v4.00/bin/bin/../../lib/gcc/pic32c/8.3.1/../../../../pic32c/lib/thumb/v7e-m+fp/hard\libm-emfloat.a(lib_a-_ILOGB.o)
 .comment       0x00000000       0x54 c:/program files/microchip/xc32/v4.00/bin/bin/../../lib/gcc/pic32c/8.3.1/../../../../pic32c/lib/thumb/v7e-m+fp/hard\libm-emfloat.a(lib_a-_ILOGB.o)
 .ARM.attributes
                0x00000000       0x34 c:/program files/microchip/xc32/v4.00/bin/bin/../../lib/gcc/pic32c/8.3.1/../../../../pic32c/lib/thumb/v7e-m+fp/hard\libm-emfloat.a(lib_a-_ILOGB.o)
 .text          0x00000000        0x0 c:/program files/microchip/xc32/v4.00/bin/bin/../../lib/gcc/pic32c/8.3.1/../../../../pic32c/lib/thumb/v7e-m+fp/hard\libm-emfloat.a(lib_a-_LDEXP.o)
 .data          0x00000000        0x0 c:/program files/microchip/xc32/v4.00/bin/bin/../../lib/gcc/pic32c/8.3.1/../../../../pic32c/lib/thumb/v7e-m+fp/hard\libm-emfloat.a(lib_a-_LDEXP.o)
 .bss           0x00000000        0x0 c:/program files/microchip/xc32/v4.00/bin/bin/../../lib/gcc/pic32c/8.3.1/../../../../pic32c/lib/thumb/v7e-m+fp/hard\libm-emfloat.a(lib_a-_LDEXP.o)
 .xc_stack_usage
                0x00000000      0x298 c:/program files/microchip/xc32/v4.00/bin/bin/../../lib/gcc/pic32c/8.3.1/../../../../pic32c/lib/thumb/v7e-m+fp/hard\libm-emfloat.a(lib_a-_LDEXP.o)
 .text.__SEGGER_RTL_float64_cmplx
                0x00000000       0x28 c:/program files/microchip/xc32/v4.00/bin/bin/../../lib/gcc/pic32c/8.3.1/../../../../pic32c/lib/thumb/v7e-m+fp/hard\libm-emfloat.a(lib_a-_LDEXP.o)
 .text.__mulsc3
                0x00000000      0x2b0 c:/program files/microchip/xc32/v4.00/bin/bin/../../lib/gcc/pic32c/8.3.1/../../../../pic32c/lib/thumb/v7e-m+fp/hard\libm-emfloat.a(lib_a-_LDEXP.o)
 .text.__SEGGER_RTL_float32_isnan
                0x00000000       0x10 c:/program files/microchip/xc32/v4.00/bin/bin/../../lib/gcc/pic32c/8.3.1/../../../../pic32c/lib/thumb/v7e-m+fp/hard\libm-emfloat.a(lib_a-_LDEXP.o)
 .text.__SEGGER_RTL_float32_isinf
                0x00000000       0x14 c:/program files/microchip/xc32/v4.00/bin/bin/../../lib/gcc/pic32c/8.3.1/../../../../pic32c/lib/thumb/v7e-m+fp/hard\libm-emfloat.a(lib_a-_LDEXP.o)
 .text.__SEGGER_RTL_float32_isfinite
                0x00000000       0x14 c:/program files/microchip/xc32/v4.00/bin/bin/../../lib/gcc/pic32c/8.3.1/../../../../pic32c/lib/thumb/v7e-m+fp/hard\libm-emfloat.a(lib_a-_LDEXP.o)
 .text.__SEGGER_RTL_float32_isnormal
                0x00000000       0x18 c:/program files/microchip/xc32/v4.00/bin/bin/../../lib/gcc/pic32c/8.3.1/../../../../pic32c/lib/thumb/v7e-m+fp/hard\libm-emfloat.a(lib_a-_LDEXP.o)
 .text.__SEGGER_RTL_float32_signbit
                0x00000000        0x8 c:/program files/microchip/xc32/v4.00/bin/bin/../../lib/gcc/pic32c/8.3.1/../../../../pic32c/lib/thumb/v7e-m+fp/hard\libm-emfloat.a(lib_a-_LDEXP.o)
 .text.__SEGGER_RTL_float32_classify
                0x00000000       0x3c c:/program files/microchip/xc32/v4.00/bin/bin/../../lib/gcc/pic32c/8.3.1/../../../../pic32c/lib/thumb/v7e-m+fp/hard\libm-emfloat.a(lib_a-_LDEXP.o)
 .text.__SEGGER_RTL_float64_isnan
                0x00000000       0x28 c:/program files/microchip/xc32/v4.00/bin/bin/../../lib/gcc/pic32c/8.3.1/../../../../pic32c/lib/thumb/v7e-m+fp/hard\libm-emfloat.a(lib_a-_LDEXP.o)
 .text.__SEGGER_RTL_float64_isinf
                0x00000000       0x20 c:/program files/microchip/xc32/v4.00/bin/bin/../../lib/gcc/pic32c/8.3.1/../../../../pic32c/lib/thumb/v7e-m+fp/hard\libm-emfloat.a(lib_a-_LDEXP.o)
 .text.__SEGGER_RTL_float64_isfinite
                0x00000000       0x14 c:/program files/microchip/xc32/v4.00/bin/bin/../../lib/gcc/pic32c/8.3.1/../../../../pic32c/lib/thumb/v7e-m+fp/hard\libm-emfloat.a(lib_a-_LDEXP.o)
 .text.__SEGGER_RTL_float64_isnormal
                0x00000000       0x34 c:/program files/microchip/xc32/v4.00/bin/bin/../../lib/gcc/pic32c/8.3.1/../../../../pic32c/lib/thumb/v7e-m+fp/hard\libm-emfloat.a(lib_a-_LDEXP.o)
 .text.__SEGGER_RTL_float64_signbit
                0x00000000        0x8 c:/program files/microchip/xc32/v4.00/bin/bin/../../lib/gcc/pic32c/8.3.1/../../../../pic32c/lib/thumb/v7e-m+fp/hard\libm-emfloat.a(lib_a-_LDEXP.o)
 .text.__SEGGER_RTL_float64_classify
                0x00000000       0x70 c:/program files/microchip/xc32/v4.00/bin/bin/../../lib/gcc/pic32c/8.3.1/../../../../pic32c/lib/thumb/v7e-m+fp/hard\libm-emfloat.a(lib_a-_LDEXP.o)
 .text.ldexp    0x00000000       0x54 c:/program files/microchip/xc32/v4.00/bin/bin/../../lib/gcc/pic32c/8.3.1/../../../../pic32c/lib/thumb/v7e-m+fp/hard\libm-emfloat.a(lib_a-_LDEXP.o)
 .text.__SEGGER_RTL_float64_cdiv
                0x00000000      0x334 c:/program files/microchip/xc32/v4.00/bin/bin/../../lib/gcc/pic32c/8.3.1/../../../../pic32c/lib/thumb/v7e-m+fp/hard\libm-emfloat.a(lib_a-_LDEXP.o)
 .text.__divdc3
                0x00000000       0x2c c:/program files/microchip/xc32/v4.00/bin/bin/../../lib/gcc/pic32c/8.3.1/../../../../pic32c/lib/thumb/v7e-m+fp/hard\libm-emfloat.a(lib_a-_LDEXP.o)
 .text.ldexpl   0x00000000        0x8 c:/program files/microchip/xc32/v4.00/bin/bin/../../lib/gcc/pic32c/8.3.1/../../../../pic32c/lib/thumb/v7e-m+fp/hard\libm-emfloat.a(lib_a-_LDEXP.o)
 .xc_stack_usage.hdr
                0x00000000        0xe c:/program files/microchip/xc32/v4.00/bin/bin/../../lib/gcc/pic32c/8.3.1/../../../../pic32c/lib/thumb/v7e-m+fp/hard\libm-emfloat.a(lib_a-_LDEXP.o)
 .comment       0x00000000       0x54 c:/program files/microchip/xc32/v4.00/bin/bin/../../lib/gcc/pic32c/8.3.1/../../../../pic32c/lib/thumb/v7e-m+fp/hard\libm-emfloat.a(lib_a-_LDEXP.o)
 .ARM.attributes
                0x00000000       0x34 c:/program files/microchip/xc32/v4.00/bin/bin/../../lib/gcc/pic32c/8.3.1/../../../../pic32c/lib/thumb/v7e-m+fp/hard\libm-emfloat.a(lib_a-_LDEXP.o)
 .data          0x00000000        0x0 c:/program files/microchip/xc32/v4.00/bin/bin/../../lib/gcc/pic32c/8.3.1/thumb/v7e-m+fp/hard\libgcc.a(_aeabi_uldivmod.o)
 .bss           0x00000000        0x0 c:/program files/microchip/xc32/v4.00/bin/bin/../../lib/gcc/pic32c/8.3.1/thumb/v7e-m+fp/hard\libgcc.a(_aeabi_uldivmod.o)
 .xc_stack_usage.hdr
                0x00000000        0xe c:/program files/microchip/xc32/v4.00/bin/bin/../../lib/gcc/pic32c/8.3.1/thumb/v7e-m+fp/hard\libgcc.a(_aeabi_uldivmod.o)
 .xc_stack_usage
                0x00000000       0x1e c:/program files/microchip/xc32/v4.00/bin/bin/../../lib/gcc/pic32c/8.3.1/thumb/v7e-m+fp/hard\libgcc.a(_aeabi_uldivmod.o)
 .data          0x00000000        0x0 c:/program files/microchip/xc32/v4.00/bin/bin/../../lib/gcc/pic32c/8.3.1/thumb/v7e-m+fp/hard\libgcc.a(_udivmoddi4.o)
 .bss           0x00000000        0x0 c:/program files/microchip/xc32/v4.00/bin/bin/../../lib/gcc/pic32c/8.3.1/thumb/v7e-m+fp/hard\libgcc.a(_udivmoddi4.o)
 .xc_stack_usage
                0x00000000       0x1a c:/program files/microchip/xc32/v4.00/bin/bin/../../lib/gcc/pic32c/8.3.1/thumb/v7e-m+fp/hard\libgcc.a(_udivmoddi4.o)
 .ARM.extab     0x00000000        0x0 c:/program files/microchip/xc32/v4.00/bin/bin/../../lib/gcc/pic32c/8.3.1/thumb/v7e-m+fp/hard\libgcc.a(_udivmoddi4.o)
 .xc_stack_usage.hdr
                0x00000000        0xe c:/program files/microchip/xc32/v4.00/bin/bin/../../lib/gcc/pic32c/8.3.1/thumb/v7e-m+fp/hard\libgcc.a(_udivmoddi4.o)
 .data          0x00000000        0x0 c:/program files/microchip/xc32/v4.00/bin/bin/../../lib/gcc/pic32c/8.3.1/thumb/v7e-m+fp/hard\libgcc.a(_dvmd_tls.o)
 .bss           0x00000000        0x0 c:/program files/microchip/xc32/v4.00/bin/bin/../../lib/gcc/pic32c/8.3.1/thumb/v7e-m+fp/hard\libgcc.a(_dvmd_tls.o)
 .xc_stack_usage.hdr
                0x00000000        0xe c:/program files/microchip/xc32/v4.00/bin/bin/../../lib/gcc/pic32c/8.3.1/thumb/v7e-m+fp/hard\libgcc.a(_dvmd_tls.o)
 .xc_stack_usage
                0x00000000       0x36 c:/program files/microchip/xc32/v4.00/bin/bin/../../lib/gcc/pic32c/8.3.1/thumb/v7e-m+fp/hard\libgcc.a(_dvmd_tls.o)
 .text          0x00000000        0x0 c:/program files/microchip/xc32/v4.00/bin/bin/../../lib/gcc/pic32c/8.3.1/../../../../pic32c/lib/thumb/v7e-m+fp/hard\libpic32c.a(close.o)
 .data          0x00000000        0x0 c:/program files/microchip/xc32/v4.00/bin/bin/../../lib/gcc/pic32c/8.3.1/../../../../pic32c/lib/thumb/v7e-m+fp/hard\libpic32c.a(close.o)
 .bss           0x00000000        0x0 c:/program files/microchip/xc32/v4.00/bin/bin/../../lib/gcc/pic32c/8.3.1/../../../../pic32c/lib/thumb/v7e-m+fp/hard\libpic32c.a(close.o)
 .xc_stack_usage
                0x00000000       0x13 c:/program files/microchip/xc32/v4.00/bin/bin/../../lib/gcc/pic32c/8.3.1/../../../../pic32c/lib/thumb/v7e-m+fp/hard\libpic32c.a(close.o)
 .gnu.warning.closestub
                0x00000000        0x0 c:/program files/microchip/xc32/v4.00/bin/bin/../../lib/gcc/pic32c/8.3.1/../../../../pic32c/lib/thumb/v7e-m+fp/hard\libpic32c.a(close.o)
 .xc_stack_usage.hdr
                0x00000000        0xe c:/program files/microchip/xc32/v4.00/bin/bin/../../lib/gcc/pic32c/8.3.1/../../../../pic32c/lib/thumb/v7e-m+fp/hard\libpic32c.a(close.o)
 .text          0x00000000        0x0 c:/program files/microchip/xc32/v4.00/bin/bin/../../lib/gcc/pic32c/8.3.1/../../../../pic32c/lib/thumb/v7e-m+fp/hard\libpic32c.a(lseek.o)
 .data          0x00000000        0x0 c:/program files/microchip/xc32/v4.00/bin/bin/../../lib/gcc/pic32c/8.3.1/../../../../pic32c/lib/thumb/v7e-m+fp/hard\libpic32c.a(lseek.o)
 .bss           0x00000000        0x0 c:/program files/microchip/xc32/v4.00/bin/bin/../../lib/gcc/pic32c/8.3.1/../../../../pic32c/lib/thumb/v7e-m+fp/hard\libpic32c.a(lseek.o)
 .xc_stack_usage
                0x00000000       0x13 c:/program files/microchip/xc32/v4.00/bin/bin/../../lib/gcc/pic32c/8.3.1/../../../../pic32c/lib/thumb/v7e-m+fp/hard\libpic32c.a(lseek.o)
 .xc_stack_usage.hdr
                0x00000000        0xe c:/program files/microchip/xc32/v4.00/bin/bin/../../lib/gcc/pic32c/8.3.1/../../../../pic32c/lib/thumb/v7e-m+fp/hard\libpic32c.a(lseek.o)
 .text          0x00000000        0x0 c:/program files/microchip/xc32/v4.00/bin/bin/../../lib/gcc/pic32c/8.3.1/../../../../pic32c/lib/thumb/v7e-m+fp/hard\libpic32c.a(sbrk.o)
 .data          0x00000000        0x0 c:/program files/microchip/xc32/v4.00/bin/bin/../../lib/gcc/pic32c/8.3.1/../../../../pic32c/lib/thumb/v7e-m+fp/hard\libpic32c.a(sbrk.o)
 .xc_stack_usage
                0x00000000       0x13 c:/program files/microchip/xc32/v4.00/bin/bin/../../lib/gcc/pic32c/8.3.1/../../../../pic32c/lib/thumb/v7e-m+fp/hard\libpic32c.a(sbrk.o)
 .xc_stack_usage.hdr
                0x00000000        0xe c:/program files/microchip/xc32/v4.00/bin/bin/../../lib/gcc/pic32c/8.3.1/../../../../pic32c/lib/thumb/v7e-m+fp/hard\libpic32c.a(sbrk.o)
 .text          0x00000000        0x0 c:/program files/microchip/xc32/v4.00/bin/bin/../../lib/gcc/pic32c/8.3.1/../../../../pic32c/lib/thumb/v7e-m+fp/hard\libpic32c.a(write.o)
 .data          0x00000000        0x0 c:/program files/microchip/xc32/v4.00/bin/bin/../../lib/gcc/pic32c/8.3.1/../../../../pic32c/lib/thumb/v7e-m+fp/hard\libpic32c.a(write.o)
 .bss           0x00000000        0x0 c:/program files/microchip/xc32/v4.00/bin/bin/../../lib/gcc/pic32c/8.3.1/../../../../pic32c/lib/thumb/v7e-m+fp/hard\libpic32c.a(write.o)
 .xc_stack_usage
                0x00000000       0x13 c:/program files/microchip/xc32/v4.00/bin/bin/../../lib/gcc/pic32c/8.3.1/../../../../pic32c/lib/thumb/v7e-m+fp/hard\libpic32c.a(write.o)
 .xc_stack_usage.hdr
                0x00000000        0xe c:/program files/microchip/xc32/v4.00/bin/bin/../../lib/gcc/pic32c/8.3.1/../../../../pic32c/lib/thumb/v7e-m+fp/hard\libpic32c.a(write.o)
 .text          0x00000000        0x0 c:/program files/microchip/xc32/v4.00/bin/bin/../../lib/gcc/pic32c/8.3.1/thumb/v7e-m+fp/hard/crtend.o
 .data          0x00000000        0x0 c:/program files/microchip/xc32/v4.00/bin/bin/../../lib/gcc/pic32c/8.3.1/thumb/v7e-m+fp/hard/crtend.o
 .bss           0x00000000        0x0 c:/program files/microchip/xc32/v4.00/bin/bin/../../lib/gcc/pic32c/8.3.1/thumb/v7e-m+fp/hard/crtend.o
 .eh_frame      0x00000000        0x4 c:/program files/microchip/xc32/v4.00/bin/bin/../../lib/gcc/pic32c/8.3.1/thumb/v7e-m+fp/hard/crtend.o
 .xc_stack_usage.hdr
                0x00000000        0xe c:/program files/microchip/xc32/v4.00/bin/bin/../../lib/gcc/pic32c/8.3.1/thumb/v7e-m+fp/hard/crtend.o
 .comment       0x00000000       0x54 c:/program files/microchip/xc32/v4.00/bin/bin/../../lib/gcc/pic32c/8.3.1/thumb/v7e-m+fp/hard/crtend.o
 .ARM.attributes
                0x00000000       0x32 c:/program files/microchip/xc32/v4.00/bin/bin/../../lib/gcc/pic32c/8.3.1/thumb/v7e-m+fp/hard/crtend.o
 .text          0x00000000        0x0 c:/program files/microchip/xc32/v4.00/bin/bin/../../lib/gcc/pic32c/8.3.1/thumb/v7e-m+fp/hard/crtn.o
 .data          0x00000000        0x0 c:/program files/microchip/xc32/v4.00/bin/bin/../../lib/gcc/pic32c/8.3.1/thumb/v7e-m+fp/hard/crtn.o
 .bss           0x00000000        0x0 c:/program files/microchip/xc32/v4.00/bin/bin/../../lib/gcc/pic32c/8.3.1/thumb/v7e-m+fp/hard/crtn.o
 .xc_stack_usage.hdr
                0x00000000        0xe c:/program files/microchip/xc32/v4.00/bin/bin/../../lib/gcc/pic32c/8.3.1/thumb/v7e-m+fp/hard/crtn.o

Memory Configuration

Name             Origin             Length             Attributes
rom              0x00000000         0x00100000         xrl
ram              0x20000000         0x00040000         xw !r
tcm              0x03000000         0x00000000         xw
config_00804000  0x00804000         0x00000004
config_00804008  0x00804008         0x00000004
config_00804004  0x00804004         0x00000004
*default*        0x00000000         0xffffffff

Linker script and memory map

LOAD c:/program files/microchip/xc32/v4.00/bin/bin/../../lib/gcc/pic32c/8.3.1/thumb/v7e-m+fp/hard/crti.o
LOAD c:/program files/microchip/xc32/v4.00/bin/bin/../../lib/gcc/pic32c/8.3.1/thumb/v7e-m+fp/hard/crtbegin.o
LOAD build/sam_e54_xpro/debug/_ext/544748269/bsp.o
LOAD build/sam_e54_xpro/debug/_ext/1062319119/drv_memory_nvmctrl.o
LOAD build/sam_e54_xpro/debug/_ext/1062319119/drv_memory.o
LOAD build/sam_e54_xpro/debug/_ext/1062319119/drv_memory_file_system.o
LOAD build/sam_e54_xpro/debug/_ext/2056749927/plib_clock.o
LOAD build/sam_e54_xpro/debug/_ext/349294639/plib_cmcc.o
LOAD build/sam_e54_xpro/debug/_ext/2058899413/plib_evsys.o
LOAD build/sam_e54_xpro/debug/_ext/1950920501/plib_mpu.o
LOAD build/sam_e54_xpro/debug/_ext/348958103/plib_nvic.o
LOAD build/sam_e54_xpro/debug/_ext/1986180951/plib_nvmctrl.o
LOAD build/sam_e54_xpro/debug/_ext/348904952/plib_port.o
LOAD build/sam_e54_xpro/debug/_ext/498645085/xc32_monitor.o
LOAD build/sam_e54_xpro/debug/_ext/2098947918/sys_cache.o
LOAD build/sam_e54_xpro/debug/_ext/1171329604/ff.o
LOAD build/sam_e54_xpro/debug/_ext/1171329604/ffunicode.o
LOAD build/sam_e54_xpro/debug/_ext/656274803/diskio.o
LOAD build/sam_e54_xpro/debug/_ext/743848790/sys_fs.o
LOAD build/sam_e54_xpro/debug/_ext/743848790/sys_fs_media_manager.o
LOAD build/sam_e54_xpro/debug/_ext/743848790/sys_fs_fat_interface.o
LOAD build/sam_e54_xpro/debug/_ext/129427312/sys_int.o
LOAD build/sam_e54_xpro/debug/_ext/68098787/initialization.o
LOAD build/sam_e54_xpro/debug/_ext/68098787/interrupts.o
LOAD build/sam_e54_xpro/debug/_ext/68098787/exceptions.o
LOAD build/sam_e54_xpro/debug/_ext/68098787/startup_xc32.o
LOAD build/sam_e54_xpro/debug/_ext/68098787/libc_syscalls.o
LOAD build/sam_e54_xpro/debug/_ext/68098787/tasks.o
LOAD build/sam_e54_xpro/debug/_ext/1360937237/nvm_disk_images.o
LOAD build/sam_e54_xpro/debug/_ext/1360937237/main.o
LOAD build/sam_e54_xpro/debug/_ext/1360937237/app.o
LOAD build/sam_e54_xpro/debug/_ext/2060180706/plib_sercom2_usart.o
                0x00000001                __MPLAB_BUILD = 0x1
                0x00100000                __rom_end = (ORIGIN (rom) + LENGTH (rom))
                0x20040000                __ram_end = (ORIGIN (ram) + LENGTH (ram))

.config_00804000
 *(.config_00804000)

.config_00804008
 *(.config_00804008)

.config_00804004
 *(.config_00804004)

.vectors        0x00000000      0x264
                0x00000000                . = ALIGN (0x4)
                0x00000000                _sfixed = .
 *(.vectors .vectors.* .vectors_default .vectors_default.*)
 .vectors.exception_table
                0x00000000      0x264 build/sam_e54_xpro/debug/_ext/68098787/interrupts.o
                0x00000000                exception_table
 *(.isr_vector)
 *(.reset*)
 *(.after_vectors)

.text           0x00000264       0x20
                0x00000264                . = ALIGN (0x4)
 *(.glue_7t)
 .glue_7t       0x00000264        0x0 linker stubs
 *(.glue_7)
 .glue_7        0x00000264        0x0 linker stubs
 *(.gnu.linkonce.r.*)
 *(.ARM.extab* .gnu.linkonce.armextab.*)
                0x00000264                . = ALIGN (0x4)
 *(.init)
 .init          0x00000264        0x4 c:/program files/microchip/xc32/v4.00/bin/bin/../../lib/gcc/pic32c/8.3.1/thumb/v7e-m+fp/hard/crti.o
                0x00000264                _init
 .init          0x00000268        0x8 c:/program files/microchip/xc32/v4.00/bin/bin/../../lib/gcc/pic32c/8.3.1/thumb/v7e-m+fp/hard/crtn.o
                0x00000270                . = ALIGN (0x4)
                0x00000270                __preinit_array_start = .
 *(.preinit_array)
                0x00000270                __preinit_array_end = .
                0x00000270                . = ALIGN (0x4)
                0x00000270                __init_array_start = .
 *(SORT_BY_NAME(.init_array.*))
 *(.init_array)
 .init_array    0x00000270        0x4 c:/program files/microchip/xc32/v4.00/bin/bin/../../lib/gcc/pic32c/8.3.1/thumb/v7e-m+fp/hard/crtbegin.o
                0x00000274                __init_array_end = .
                0x00000274                . = ALIGN (0x4)
 *crtbegin.o(.ctors)
 *(EXCLUDE_FILE(*crtend.o) .ctors)
 *(SORT_BY_NAME(.ctors.*))
 *crtend.o(.ctors)
                0x00000274                . = ALIGN (0x4)
 *(.fini)
 .fini          0x00000274        0x4 c:/program files/microchip/xc32/v4.00/bin/bin/../../lib/gcc/pic32c/8.3.1/thumb/v7e-m+fp/hard/crti.o
                0x00000274                _fini
 .fini          0x00000278        0x8 c:/program files/microchip/xc32/v4.00/bin/bin/../../lib/gcc/pic32c/8.3.1/thumb/v7e-m+fp/hard/crtn.o
                0x00000280                . = ALIGN (0x4)
                0x00000280                __fini_array_start = .
 *(.fini_array)
 .fini_array    0x00000280        0x4 c:/program files/microchip/xc32/v4.00/bin/bin/../../lib/gcc/pic32c/8.3.1/thumb/v7e-m+fp/hard/crtbegin.o
 *(SORT_BY_NAME(.fini_array.*))
                0x00000284                __fini_array_end = .
 *crtbegin.o(.dtors)
 *(EXCLUDE_FILE(*crtend.o) .dtors)
 *(SORT_BY_NAME(.dtors.*))
 *crtend.o(.dtors)
                0x00000284                . = ALIGN (0x4)
                0x00000284                _efixed = .
                [!provide]                PROVIDE (__exidx_start = .)

.ARM.exidx      0x00000284        0x8
 *(.ARM.exidx* .gnu.linkonce.armexidx.*)
 .ARM.exidx     0x00000284        0x8 c:/program files/microchip/xc32/v4.00/bin/bin/../../lib/gcc/pic32c/8.3.1/thumb/v7e-m+fp/hard\libgcc.a(_udivmoddi4.o)
                [!provide]                PROVIDE (__exidx_end = .)
                0x0000028c                . = ALIGN (0x4)
                0x0000028c                _etext = .

.bss            0x20000000        0x0
                0x20000000                . = ALIGN (0x4)
                0x20000000                __bss_start__ = .
                0x20000000                _sbss = .
                0x20000000                _szero = .
 *(COMMON)
                0x20000000                . = ALIGN (0x4)
                0x20000000                __bss_end__ = .
                0x20000000                _ebss = .
                0x20000000                _ezero = .
                0x20000000                . = ALIGN (0x4)
                0x20000000                _end = .
                0x2003ffff                _ram_end_ = ((ORIGIN (ram) + LENGTH (ram)) - 0x1)
                0x00000001                __ICD2RAM = 0x1
                0x00000001                __MPLAB_DEBUG = 0x1
                0x00000001                __DEBUG = 0x1
                0x00000200                _min_heap_size = 0x200
START GROUP
LOAD c:/program files/microchip/xc32/v4.00/bin/bin/../../lib/gcc/pic32c/8.3.1/../../../../pic32c/lib/thumb/v7e-m+fp/hard\libpic32c.a
LOAD c:/program files/microchip/xc32/v4.00/bin/bin/../../lib/gcc/pic32c/8.3.1/../../../../pic32c/lib/thumb/v7e-m+fp/hard\libm-emfloat.a
LOAD c:/program files/microchip/xc32/v4.00/bin/bin/../../lib/gcc/pic32c/8.3.1/../../../../pic32c/lib/thumb/v7e-m+fp/hard\libg-musl.a
LOAD c:/program files/microchip/xc32/v4.00/bin/bin/../../lib/gcc/pic32c/8.3.1/../../../../pic32c/lib/thumb/v7e-m+fp/hard\libc-musl.a
LOAD c:/program files/microchip/xc32/v4.00/bin/bin/../../lib/gcc/pic32c/8.3.1/../../../../pic32c/lib/thumb/v7e-m+fp/hard\libm-emfloat.a
LOAD c:/program files/microchip/xc32/v4.00/bin/bin/../../lib/gcc/pic32c/8.3.1/thumb/v7e-m+fp/hard\libgcc.a
END GROUP
LOAD c:/program files/microchip/xc32/v4.00/bin/bin/../../lib/gcc/pic32c/8.3.1/thumb/v7e-m+fp/hard/crtend.o
LOAD c:/program files/microchip/xc32/v4.00/bin/bin/../../lib/gcc/pic32c/8.3.1/thumb/v7e-m+fp/hard/crtn.o
OUTPUT(dist/sam_e54_xpro/debug/sam_e54_xpro.X.debug.elf elf32-littlearm)
LOAD stack
LOAD data_init

.ARM.attributes
                0x00000000       0x32
 .ARM.attributes
                0x00000000       0x1e c:/program files/microchip/xc32/v4.00/bin/bin/../../lib/gcc/pic32c/8.3.1/thumb/v7e-m+fp/hard/crti.o
 .ARM.attributes
                0x0000001e       0x34 c:/program files/microchip/xc32/v4.00/bin/bin/../../lib/gcc/pic32c/8.3.1/thumb/v7e-m+fp/hard/crtbegin.o
 .ARM.attributes
                0x00000052       0x34 build/sam_e54_xpro/debug/_ext/544748269/bsp.o
 .ARM.attributes
                0x00000086       0x34 build/sam_e54_xpro/debug/_ext/1062319119/drv_memory_nvmctrl.o
 .ARM.attributes
                0x000000ba       0x34 build/sam_e54_xpro/debug/_ext/1062319119/drv_memory.o
 .ARM.attributes
                0x000000ee       0x34 build/sam_e54_xpro/debug/_ext/1062319119/drv_memory_file_system.o
 .ARM.attributes
                0x00000122       0x34 build/sam_e54_xpro/debug/_ext/2056749927/plib_clock.o
 .ARM.attributes
                0x00000156       0x34 build/sam_e54_xpro/debug/_ext/2058899413/plib_evsys.o
 .ARM.attributes
                0x0000018a       0x34 build/sam_e54_xpro/debug/_ext/1950920501/plib_mpu.o
 .ARM.attributes
                0x000001be       0x34 build/sam_e54_xpro/debug/_ext/348958103/plib_nvic.o
 .ARM.attributes
                0x000001f2       0x34 build/sam_e54_xpro/debug/_ext/1986180951/plib_nvmctrl.o
 .ARM.attributes
                0x00000226       0x34 build/sam_e54_xpro/debug/_ext/348904952/plib_port.o
 .ARM.attributes
                0x0000025a       0x34 build/sam_e54_xpro/debug/_ext/498645085/xc32_monitor.o
 .ARM.attributes
                0x0000028e       0x34 build/sam_e54_xpro/debug/_ext/1171329604/ff.o
 .ARM.attributes
                0x000002c2       0x34 build/sam_e54_xpro/debug/_ext/1171329604/ffunicode.o
 .ARM.attributes
                0x000002f6       0x34 build/sam_e54_xpro/debug/_ext/656274803/diskio.o
 .ARM.attributes
                0x0000032a       0x34 build/sam_e54_xpro/debug/_ext/743848790/sys_fs.o
 .ARM.attributes
                0x0000035e       0x34 build/sam_e54_xpro/debug/_ext/743848790/sys_fs_media_manager.o
 .ARM.attributes
                0x00000392       0x34 build/sam_e54_xpro/debug/_ext/743848790/sys_fs_fat_interface.o
 .ARM.attributes
                0x000003c6       0x34 build/sam_e54_xpro/debug/_ext/68098787/initialization.o
 .ARM.attributes
                0x000003fa       0x34 build/sam_e54_xpro/debug/_ext/68098787/interrupts.o
 .ARM.attributes
                0x0000042e       0x34 build/sam_e54_xpro/debug/_ext/68098787/exceptions.o
 .ARM.attributes
                0x00000462       0x34 build/sam_e54_xpro/debug/_ext/68098787/startup_xc32.o
 .ARM.attributes
                0x00000496       0x34 build/sam_e54_xpro/debug/_ext/68098787/tasks.o
 .ARM.attributes
                0x000004ca       0x39 build/sam_e54_xpro/debug/_ext/1360937237/nvm_disk_images.o
 .ARM.attributes
                0x00000503       0x34 build/sam_e54_xpro/debug/_ext/1360937237/main.o
 .ARM.attributes
                0x00000537       0x34 build/sam_e54_xpro/debug/_ext/1360937237/app.o
 .ARM.attributes
                0x0000056b       0x34 build/sam_e54_xpro/debug/_ext/2060180706/plib_sercom2_usart.o
 .ARM.attributes
                0x0000059f       0x34 c:/program files/microchip/xc32/v4.00/bin/bin/../../lib/gcc/pic32c/8.3.1/../../../../pic32c/lib/thumb/v7e-m+fp/hard\libpic32c.a(data_init.o)
 .ARM.attributes
                0x000005d3       0x36 c:/program files/microchip/xc32/v4.00/bin/bin/../../lib/gcc/pic32c/8.3.1/../../../../pic32c/lib/thumb/v7e-m+fp/hard\libg-musl.a(__libc_start_main.o)
 .ARM.attributes
                0x00000609       0x34 c:/program files/microchip/xc32/v4.00/bin/bin/../../lib/gcc/pic32c/8.3.1/../../../../pic32c/lib/thumb/v7e-m+fp/hard\libg-musl.a(libc.o)
 .ARM.attributes
                0x0000063d       0x36 c:/program files/microchip/xc32/v4.00/bin/bin/../../lib/gcc/pic32c/8.3.1/../../../../pic32c/lib/thumb/v7e-m+fp/hard\libg-musl.a(stdin.o)
 .ARM.attributes
                0x00000673       0x36 c:/program files/microchip/xc32/v4.00/bin/bin/../../lib/gcc/pic32c/8.3.1/../../../../pic32c/lib/thumb/v7e-m+fp/hard\libg-musl.a(stdout.o)
 .ARM.attributes
                0x000006a9       0x36 c:/program files/microchip/xc32/v4.00/bin/bin/../../lib/gcc/pic32c/8.3.1/../../../../pic32c/lib/thumb/v7e-m+fp/hard\libg-musl.a(printf.o)
 .ARM.attributes
                0x000006df       0x36 c:/program files/microchip/xc32/v4.00/bin/bin/../../lib/gcc/pic32c/8.3.1/../../../../pic32c/lib/thumb/v7e-m+fp/hard\libg-musl.a(setbuf.o)
 .ARM.attributes
                0x00000715       0x36 c:/program files/microchip/xc32/v4.00/bin/bin/../../lib/gcc/pic32c/8.3.1/../../../../pic32c/lib/thumb/v7e-m+fp/hard\libg-musl.a(memcpy.o)
 .ARM.attributes
                0x0000074b       0x36 c:/program files/microchip/xc32/v4.00/bin/bin/../../lib/gcc/pic32c/8.3.1/../../../../pic32c/lib/thumb/v7e-m+fp/hard\libg-musl.a(memset.o)
 .ARM.attributes
                0x00000781       0x36 c:/program files/microchip/xc32/v4.00/bin/bin/../../lib/gcc/pic32c/8.3.1/../../../../pic32c/lib/thumb/v7e-m+fp/hard\libg-musl.a(strlen.o)
 .ARM.attributes
                0x000007b7       0x36 c:/program files/microchip/xc32/v4.00/bin/bin/../../lib/gcc/pic32c/8.3.1/../../../../pic32c/lib/thumb/v7e-m+fp/hard\libg-musl.a(strcmp.o)
 .ARM.attributes
                0x000007ed       0x36 c:/program files/microchip/xc32/v4.00/bin/bin/../../lib/gcc/pic32c/8.3.1/../../../../pic32c/lib/thumb/v7e-m+fp/hard\libg-musl.a(strcpy.o)
 .ARM.attributes
                0x00000823       0x36 c:/program files/microchip/xc32/v4.00/bin/bin/../../lib/gcc/pic32c/8.3.1/../../../../pic32c/lib/thumb/v7e-m+fp/hard\libg-musl.a(strncmp.o)
 .ARM.attributes
                0x00000859       0x34 c:/program files/microchip/xc32/v4.00/bin/bin/../../lib/gcc/pic32c/8.3.1/../../../../pic32c/lib/thumb/v7e-m+fp/hard\libg-musl.a(__environ.o)
 .ARM.attributes
                0x0000088d       0x36 c:/program files/microchip/xc32/v4.00/bin/bin/../../lib/gcc/pic32c/8.3.1/../../../../pic32c/lib/thumb/v7e-m+fp/hard\libg-musl.a(__stdio_read.o)
 .ARM.attributes
                0x000008c3       0x36 c:/program files/microchip/xc32/v4.00/bin/bin/../../lib/gcc/pic32c/8.3.1/../../../../pic32c/lib/thumb/v7e-m+fp/hard\libg-musl.a(__towrite_rw.o)
 .ARM.attributes
                0x000008f9       0x36 c:/program files/microchip/xc32/v4.00/bin/bin/../../lib/gcc/pic32c/8.3.1/../../../../pic32c/lib/thumb/v7e-m+fp/hard\libg-musl.a(setvbuf.o)
 .ARM.attributes
                0x0000092f       0x36 c:/program files/microchip/xc32/v4.00/bin/bin/../../lib/gcc/pic32c/8.3.1/../../../../pic32c/lib/thumb/v7e-m+fp/hard\libg-musl.a(vfprintf.o)
 .ARM.attributes
                0x00000965       0x36 c:/program files/microchip/xc32/v4.00/bin/bin/../../lib/gcc/pic32c/8.3.1/../../../../pic32c/lib/thumb/v7e-m+fp/hard\libg-musl.a(stpcpy.o)
 .ARM.attributes
                0x0000099b       0x36 c:/program files/microchip/xc32/v4.00/bin/bin/../../lib/gcc/pic32c/8.3.1/../../../../pic32c/lib/thumb/v7e-m+fp/hard\libg-musl.a(readv.o)
 .ARM.attributes
                0x000009d1       0x36 c:/program files/microchip/xc32/v4.00/bin/bin/../../lib/gcc/pic32c/8.3.1/../../../../pic32c/lib/thumb/v7e-m+fp/hard\libg-musl.a(malloc.o)
 .ARM.attributes
                0x00000a07       0x36 c:/program files/microchip/xc32/v4.00/bin/bin/../../lib/gcc/pic32c/8.3.1/../../../../pic32c/lib/thumb/v7e-m+fp/hard\libg-musl.a(expand_heap.o)
 .ARM.attributes
                0x00000a3d       0x36 c:/program files/microchip/xc32/v4.00/bin/bin/../../lib/gcc/pic32c/8.3.1/../../../../pic32c/lib/thumb/v7e-m+fp/hard\libg-musl.a(__init_stdio.o)
 .ARM.attributes
                0x00000a73       0x36 c:/program files/microchip/xc32/v4.00/bin/bin/../../lib/gcc/pic32c/8.3.1/../../../../pic32c/lib/thumb/v7e-m+fp/hard\libg-musl.a(__out.o)
 .ARM.attributes
                0x00000aa9       0x36 c:/program files/microchip/xc32/v4.00/bin/bin/../../lib/gcc/pic32c/8.3.1/../../../../pic32c/lib/thumb/v7e-m+fp/hard\libg-musl.a(__printf_core.o)
 .ARM.attributes
                0x00000adf       0x36 c:/program files/microchip/xc32/v4.00/bin/bin/../../lib/gcc/pic32c/8.3.1/../../../../pic32c/lib/thumb/v7e-m+fp/hard\libg-musl.a(__stderr.o)
 .ARM.attributes
                0x00000b15       0x36 c:/program files/microchip/xc32/v4.00/bin/bin/../../lib/gcc/pic32c/8.3.1/../../../../pic32c/lib/thumb/v7e-m+fp/hard\libg-musl.a(__stdio_close.o)
 .ARM.attributes
                0x00000b4b       0x36 c:/program files/microchip/xc32/v4.00/bin/bin/../../lib/gcc/pic32c/8.3.1/../../../../pic32c/lib/thumb/v7e-m+fp/hard\libg-musl.a(__stdio_write.o)
 .ARM.attributes
                0x00000b81       0x36 c:/program files/microchip/xc32/v4.00/bin/bin/../../lib/gcc/pic32c/8.3.1/../../../../pic32c/lib/thumb/v7e-m+fp/hard\libg-musl.a(__stdout.o)
 .ARM.attributes
                0x00000bb7       0x36 c:/program files/microchip/xc32/v4.00/bin/bin/../../lib/gcc/pic32c/8.3.1/../../../../pic32c/lib/thumb/v7e-m+fp/hard\libg-musl.a(__towrite.o)
 .ARM.attributes
                0x00000bed       0x36 c:/program files/microchip/xc32/v4.00/bin/bin/../../lib/gcc/pic32c/8.3.1/../../../../pic32c/lib/thumb/v7e-m+fp/hard\libg-musl.a(atoi.o)
 .ARM.attributes
                0x00000c23       0x36 c:/program files/microchip/xc32/v4.00/bin/bin/../../lib/gcc/pic32c/8.3.1/../../../../pic32c/lib/thumb/v7e-m+fp/hard\libg-musl.a(read.o)
 .ARM.attributes
                0x00000c59       0x36 c:/program files/microchip/xc32/v4.00/bin/bin/../../lib/gcc/pic32c/8.3.1/../../../../pic32c/lib/thumb/v7e-m+fp/hard\libg-musl.a(writev.o)
 .ARM.attributes
                0x00000c8f       0x36 c:/program files/microchip/xc32/v4.00/bin/bin/../../lib/gcc/pic32c/8.3.1/../../../../pic32c/lib/thumb/v7e-m+fp/hard\libg-musl.a(tolower.o)
 .ARM.attributes
                0x00000cc5       0x34 c:/program files/microchip/xc32/v4.00/bin/bin/../../lib/gcc/pic32c/8.3.1/../../../../pic32c/lib/thumb/v7e-m+fp/hard\libg-musl.a(__errno_location.o)
 .ARM.attributes
                0x00000cf9       0x36 c:/program files/microchip/xc32/v4.00/bin/bin/../../lib/gcc/pic32c/8.3.1/../../../../pic32c/lib/thumb/v7e-m+fp/hard\libg-musl.a(syscall_ret.o)
 .ARM.attributes
                0x00000d2f       0x36 c:/program files/microchip/xc32/v4.00/bin/bin/../../lib/gcc/pic32c/8.3.1/../../../../pic32c/lib/thumb/v7e-m+fp/hard\libg-musl.a(__fmt_a.o)
 .ARM.attributes
                0x00000d65       0x36 c:/program files/microchip/xc32/v4.00/bin/bin/../../lib/gcc/pic32c/8.3.1/../../../../pic32c/lib/thumb/v7e-m+fp/hard\libg-musl.a(__fmt_d.o)
 .ARM.attributes
                0x00000d9b       0x36 c:/program files/microchip/xc32/v4.00/bin/bin/../../lib/gcc/pic32c/8.3.1/../../../../pic32c/lib/thumb/v7e-m+fp/hard\libg-musl.a(__fmt_fp.o)
 .ARM.attributes
                0x00000dd1       0x36 c:/program files/microchip/xc32/v4.00/bin/bin/../../lib/gcc/pic32c/8.3.1/../../../../pic32c/lib/thumb/v7e-m+fp/hard\libg-musl.a(__fmt_o.o)
 .ARM.attributes
                0x00000e07       0x36 c:/program files/microchip/xc32/v4.00/bin/bin/../../lib/gcc/pic32c/8.3.1/../../../../pic32c/lib/thumb/v7e-m+fp/hard\libg-musl.a(__fmt_s.o)
 .ARM.attributes
                0x00000e3d       0x36 c:/program files/microchip/xc32/v4.00/bin/bin/../../lib/gcc/pic32c/8.3.1/../../../../pic32c/lib/thumb/v7e-m+fp/hard\libg-musl.a(__fmt_u.o)
 .ARM.attributes
                0x00000e73       0x36 c:/program files/microchip/xc32/v4.00/bin/bin/../../lib/gcc/pic32c/8.3.1/../../../../pic32c/lib/thumb/v7e-m+fp/hard\libg-musl.a(__fmt_x.o)
 .ARM.attributes
                0x00000ea9       0x36 c:/program files/microchip/xc32/v4.00/bin/bin/../../lib/gcc/pic32c/8.3.1/../../../../pic32c/lib/thumb/v7e-m+fp/hard\libg-musl.a(__fwrite.o)
 .ARM.attributes
                0x00000edf       0x36 c:/program files/microchip/xc32/v4.00/bin/bin/../../lib/gcc/pic32c/8.3.1/../../../../pic32c/lib/thumb/v7e-m+fp/hard\libg-musl.a(__pop_float.o)
 .ARM.attributes
                0x00000f15       0x36 c:/program files/microchip/xc32/v4.00/bin/bin/../../lib/gcc/pic32c/8.3.1/../../../../pic32c/lib/thumb/v7e-m+fp/hard\libg-musl.a(__pop_int.o)
 .ARM.attributes
                0x00000f4b       0x36 c:/program files/microchip/xc32/v4.00/bin/bin/../../lib/gcc/pic32c/8.3.1/../../../../pic32c/lib/thumb/v7e-m+fp/hard\libg-musl.a(__pop_ptr.o)
 .ARM.attributes
                0x00000f81       0x36 c:/program files/microchip/xc32/v4.00/bin/bin/../../lib/gcc/pic32c/8.3.1/../../../../pic32c/lib/thumb/v7e-m+fp/hard\libg-musl.a(toupper.o)
 .ARM.attributes
                0x00000fb7       0x34 c:/program files/microchip/xc32/v4.00/bin/bin/../../lib/gcc/pic32c/8.3.1/../../../../pic32c/lib/thumb/v7e-m+fp/hard\libm-emfloat.a(lib_a-_FLOOR.o)
 .ARM.attributes
                0x00000feb       0x34 c:/program files/microchip/xc32/v4.00/bin/bin/../../lib/gcc/pic32c/8.3.1/../../../../pic32c/lib/thumb/v7e-m+fp/hard\libm-emfloat.a(lib_a-_FMA.o)
 .ARM.attributes
                0x0000101f       0x20 c:/program files/microchip/xc32/v4.00/bin/bin/../../lib/gcc/pic32c/8.3.1/../../../../pic32c/lib/thumb/v7e-m+fp/hard\libm-emfloat.a(floatasmops_arm.o)
 .ARM.attributes
                0x0000103f       0x1e c:/program files/microchip/xc32/v4.00/bin/bin/../../lib/gcc/pic32c/8.3.1/thumb/v7e-m+fp/hard\libgcc.a(_aeabi_uldivmod.o)
 .ARM.attributes
                0x0000105d       0x34 c:/program files/microchip/xc32/v4.00/bin/bin/../../lib/gcc/pic32c/8.3.1/thumb/v7e-m+fp/hard\libgcc.a(_udivmoddi4.o)
 .ARM.attributes
                0x00001091       0x1e c:/program files/microchip/xc32/v4.00/bin/bin/../../lib/gcc/pic32c/8.3.1/thumb/v7e-m+fp/hard\libgcc.a(_dvmd_tls.o)
 .ARM.attributes
                0x000010af       0x34 c:/program files/microchip/xc32/v4.00/bin/bin/../../lib/gcc/pic32c/8.3.1/../../../../pic32c/lib/thumb/v7e-m+fp/hard\libpic32c.a(close.o)
 .ARM.attributes
                0x000010e3       0x34 c:/program files/microchip/xc32/v4.00/bin/bin/../../lib/gcc/pic32c/8.3.1/../../../../pic32c/lib/thumb/v7e-m+fp/hard\libpic32c.a(lseek.o)
 .ARM.attributes
                0x00001117       0x34 c:/program files/microchip/xc32/v4.00/bin/bin/../../lib/gcc/pic32c/8.3.1/../../../../pic32c/lib/thumb/v7e-m+fp/hard\libpic32c.a(sbrk.o)
 .ARM.attributes
                0x0000114b       0x34 c:/program files/microchip/xc32/v4.00/bin/bin/../../lib/gcc/pic32c/8.3.1/../../../../pic32c/lib/thumb/v7e-m+fp/hard\libpic32c.a(write.o)
 .ARM.attributes
                0x0000117f       0x1e c:/program files/microchip/xc32/v4.00/bin/bin/../../lib/gcc/pic32c/8.3.1/thumb/v7e-m+fp/hard/crtn.o

.comment        0x00000000       0x53
 .comment       0x00000000       0x53 c:/program files/microchip/xc32/v4.00/bin/bin/../../lib/gcc/pic32c/8.3.1/thumb/v7e-m+fp/hard/crtbegin.o
                                 0x54 (size before relaxing)
 .comment       0x00000053       0x54 build/sam_e54_xpro/debug/_ext/544748269/bsp.o
 .comment       0x00000053       0x54 build/sam_e54_xpro/debug/_ext/1062319119/drv_memory_nvmctrl.o
 .comment       0x00000053       0x54 build/sam_e54_xpro/debug/_ext/1062319119/drv_memory.o
 .comment       0x00000053       0x54 build/sam_e54_xpro/debug/_ext/1062319119/drv_memory_file_system.o
 .comment       0x00000053       0x54 build/sam_e54_xpro/debug/_ext/2056749927/plib_clock.o
 .comment       0x00000053       0x54 build/sam_e54_xpro/debug/_ext/2058899413/plib_evsys.o
 .comment       0x00000053       0x54 build/sam_e54_xpro/debug/_ext/1950920501/plib_mpu.o
 .comment       0x00000053       0x54 build/sam_e54_xpro/debug/_ext/348958103/plib_nvic.o
 .comment       0x00000053       0x54 build/sam_e54_xpro/debug/_ext/1986180951/plib_nvmctrl.o
 .comment       0x00000053       0x54 build/sam_e54_xpro/debug/_ext/348904952/plib_port.o
 .comment       0x00000053       0x54 build/sam_e54_xpro/debug/_ext/498645085/xc32_monitor.o
 .comment       0x00000053       0x54 build/sam_e54_xpro/debug/_ext/1171329604/ff.o
 .comment       0x00000053       0x54 build/sam_e54_xpro/debug/_ext/1171329604/ffunicode.o
 .comment       0x00000053       0x54 build/sam_e54_xpro/debug/_ext/656274803/diskio.o
 .comment       0x00000053       0x54 build/sam_e54_xpro/debug/_ext/743848790/sys_fs.o
 .comment       0x00000053       0x54 build/sam_e54_xpro/debug/_ext/743848790/sys_fs_media_manager.o
 .comment       0x00000053       0x54 build/sam_e54_xpro/debug/_ext/743848790/sys_fs_fat_interface.o
 .comment       0x00000053       0x54 build/sam_e54_xpro/debug/_ext/68098787/initialization.o
 .comment       0x00000053       0x54 build/sam_e54_xpro/debug/_ext/68098787/interrupts.o
 .comment       0x00000053       0x54 build/sam_e54_xpro/debug/_ext/68098787/exceptions.o
 .comment       0x00000053       0x54 build/sam_e54_xpro/debug/_ext/68098787/startup_xc32.o
 .comment       0x00000053       0x54 build/sam_e54_xpro/debug/_ext/68098787/tasks.o
 .comment       0x00000053       0x54 build/sam_e54_xpro/debug/_ext/1360937237/nvm_disk_images.o
 .comment       0x00000053       0x54 build/sam_e54_xpro/debug/_ext/1360937237/main.o
 .comment       0x00000053       0x54 build/sam_e54_xpro/debug/_ext/1360937237/app.o
 .comment       0x00000053       0x54 build/sam_e54_xpro/debug/_ext/2060180706/plib_sercom2_usart.o
 .comment       0x00000053       0x54 c:/program files/microchip/xc32/v4.00/bin/bin/../../lib/gcc/pic32c/8.3.1/../../../../pic32c/lib/thumb/v7e-m+fp/hard\libpic32c.a(data_init.o)
 .comment       0x00000053       0x54 c:/program files/microchip/xc32/v4.00/bin/bin/../../lib/gcc/pic32c/8.3.1/../../../../pic32c/lib/thumb/v7e-m+fp/hard\libg-musl.a(__libc_start_main.o)
 .comment       0x00000053       0x54 c:/program files/microchip/xc32/v4.00/bin/bin/../../lib/gcc/pic32c/8.3.1/../../../../pic32c/lib/thumb/v7e-m+fp/hard\libg-musl.a(libc.o)
 .comment       0x00000053       0x54 c:/program files/microchip/xc32/v4.00/bin/bin/../../lib/gcc/pic32c/8.3.1/../../../../pic32c/lib/thumb/v7e-m+fp/hard\libg-musl.a(stdin.o)
 .comment       0x00000053       0x54 c:/program files/microchip/xc32/v4.00/bin/bin/../../lib/gcc/pic32c/8.3.1/../../../../pic32c/lib/thumb/v7e-m+fp/hard\libg-musl.a(stdout.o)
 .comment       0x00000053       0x54 c:/program files/microchip/xc32/v4.00/bin/bin/../../lib/gcc/pic32c/8.3.1/../../../../pic32c/lib/thumb/v7e-m+fp/hard\libg-musl.a(printf.o)
 .comment       0x00000053       0x54 c:/program files/microchip/xc32/v4.00/bin/bin/../../lib/gcc/pic32c/8.3.1/../../../../pic32c/lib/thumb/v7e-m+fp/hard\libg-musl.a(setbuf.o)
 .comment       0x00000053       0x54 c:/program files/microchip/xc32/v4.00/bin/bin/../../lib/gcc/pic32c/8.3.1/../../../../pic32c/lib/thumb/v7e-m+fp/hard\libg-musl.a(memcpy.o)
 .comment       0x00000053       0x54 c:/program files/microchip/xc32/v4.00/bin/bin/../../lib/gcc/pic32c/8.3.1/../../../../pic32c/lib/thumb/v7e-m+fp/hard\libg-musl.a(memset.o)
 .comment       0x00000053       0x54 c:/program files/microchip/xc32/v4.00/bin/bin/../../lib/gcc/pic32c/8.3.1/../../../../pic32c/lib/thumb/v7e-m+fp/hard\libg-musl.a(strlen.o)
 .comment       0x00000053       0x54 c:/program files/microchip/xc32/v4.00/bin/bin/../../lib/gcc/pic32c/8.3.1/../../../../pic32c/lib/thumb/v7e-m+fp/hard\libg-musl.a(strcmp.o)
 .comment       0x00000053       0x54 c:/program files/microchip/xc32/v4.00/bin/bin/../../lib/gcc/pic32c/8.3.1/../../../../pic32c/lib/thumb/v7e-m+fp/hard\libg-musl.a(strcpy.o)
 .comment       0x00000053       0x54 c:/program files/microchip/xc32/v4.00/bin/bin/../../lib/gcc/pic32c/8.3.1/../../../../pic32c/lib/thumb/v7e-m+fp/hard\libg-musl.a(strncmp.o)
 .comment       0x00000053       0x54 c:/program files/microchip/xc32/v4.00/bin/bin/../../lib/gcc/pic32c/8.3.1/../../../../pic32c/lib/thumb/v7e-m+fp/hard\libg-musl.a(__environ.o)
 .comment       0x00000053       0x54 c:/program files/microchip/xc32/v4.00/bin/bin/../../lib/gcc/pic32c/8.3.1/../../../../pic32c/lib/thumb/v7e-m+fp/hard\libg-musl.a(__stdio_read.o)
 .comment       0x00000053       0x54 c:/program files/microchip/xc32/v4.00/bin/bin/../../lib/gcc/pic32c/8.3.1/../../../../pic32c/lib/thumb/v7e-m+fp/hard\libg-musl.a(__towrite_rw.o)
 .comment       0x00000053       0x54 c:/program files/microchip/xc32/v4.00/bin/bin/../../lib/gcc/pic32c/8.3.1/../../../../pic32c/lib/thumb/v7e-m+fp/hard\libg-musl.a(setvbuf.o)
 .comment       0x00000053       0x54 c:/program files/microchip/xc32/v4.00/bin/bin/../../lib/gcc/pic32c/8.3.1/../../../../pic32c/lib/thumb/v7e-m+fp/hard\libg-musl.a(vfprintf.o)
 .comment       0x00000053       0x54 c:/program files/microchip/xc32/v4.00/bin/bin/../../lib/gcc/pic32c/8.3.1/../../../../pic32c/lib/thumb/v7e-m+fp/hard\libg-musl.a(stpcpy.o)
 .comment       0x00000053       0x54 c:/program files/microchip/xc32/v4.00/bin/bin/../../lib/gcc/pic32c/8.3.1/../../../../pic32c/lib/thumb/v7e-m+fp/hard\libg-musl.a(readv.o)
 .comment       0x00000053       0x54 c:/program files/microchip/xc32/v4.00/bin/bin/../../lib/gcc/pic32c/8.3.1/../../../../pic32c/lib/thumb/v7e-m+fp/hard\libg-musl.a(malloc.o)
 .comment       0x00000053       0x54 c:/program files/microchip/xc32/v4.00/bin/bin/../../lib/gcc/pic32c/8.3.1/../../../../pic32c/lib/thumb/v7e-m+fp/hard\libg-musl.a(expand_heap.o)
 .comment       0x00000053       0x54 c:/program files/microchip/xc32/v4.00/bin/bin/../../lib/gcc/pic32c/8.3.1/../../../../pic32c/lib/thumb/v7e-m+fp/hard\libg-musl.a(__init_stdio.o)
 .comment       0x00000053       0x54 c:/program files/microchip/xc32/v4.00/bin/bin/../../lib/gcc/pic32c/8.3.1/../../../../pic32c/lib/thumb/v7e-m+fp/hard\libg-musl.a(__out.o)
 .comment       0x00000053       0x54 c:/program files/microchip/xc32/v4.00/bin/bin/../../lib/gcc/pic32c/8.3.1/../../../../pic32c/lib/thumb/v7e-m+fp/hard\libg-musl.a(__printf_core.o)
 .comment       0x00000053       0x54 c:/program files/microchip/xc32/v4.00/bin/bin/../../lib/gcc/pic32c/8.3.1/../../../../pic32c/lib/thumb/v7e-m+fp/hard\libg-musl.a(__stderr.o)
 .comment       0x00000053       0x54 c:/program files/microchip/xc32/v4.00/bin/bin/../../lib/gcc/pic32c/8.3.1/../../../../pic32c/lib/thumb/v7e-m+fp/hard\libg-musl.a(__stdio_close.o)
 .comment       0x00000053       0x54 c:/program files/microchip/xc32/v4.00/bin/bin/../../lib/gcc/pic32c/8.3.1/../../../../pic32c/lib/thumb/v7e-m+fp/hard\libg-musl.a(__stdio_write.o)
 .comment       0x00000053       0x54 c:/program files/microchip/xc32/v4.00/bin/bin/../../lib/gcc/pic32c/8.3.1/../../../../pic32c/lib/thumb/v7e-m+fp/hard\libg-musl.a(__stdout.o)
 .comment       0x00000053       0x54 c:/program files/microchip/xc32/v4.00/bin/bin/../../lib/gcc/pic32c/8.3.1/../../../../pic32c/lib/thumb/v7e-m+fp/hard\libg-musl.a(__towrite.o)
 .comment       0x00000053       0x54 c:/program files/microchip/xc32/v4.00/bin/bin/../../lib/gcc/pic32c/8.3.1/../../../../pic32c/lib/thumb/v7e-m+fp/hard\libg-musl.a(atoi.o)
 .comment       0x00000053       0x54 c:/program files/microchip/xc32/v4.00/bin/bin/../../lib/gcc/pic32c/8.3.1/../../../../pic32c/lib/thumb/v7e-m+fp/hard\libg-musl.a(read.o)
 .comment       0x00000053       0x54 c:/program files/microchip/xc32/v4.00/bin/bin/../../lib/gcc/pic32c/8.3.1/../../../../pic32c/lib/thumb/v7e-m+fp/hard\libg-musl.a(writev.o)
 .comment       0x00000053       0x54 c:/program files/microchip/xc32/v4.00/bin/bin/../../lib/gcc/pic32c/8.3.1/../../../../pic32c/lib/thumb/v7e-m+fp/hard\libg-musl.a(tolower.o)
 .comment       0x00000053       0x54 c:/program files/microchip/xc32/v4.00/bin/bin/../../lib/gcc/pic32c/8.3.1/../../../../pic32c/lib/thumb/v7e-m+fp/hard\libg-musl.a(__errno_location.o)
 .comment       0x00000053       0x54 c:/program files/microchip/xc32/v4.00/bin/bin/../../lib/gcc/pic32c/8.3.1/../../../../pic32c/lib/thumb/v7e-m+fp/hard\libg-musl.a(syscall_ret.o)
 .comment       0x00000053       0x54 c:/program files/microchip/xc32/v4.00/bin/bin/../../lib/gcc/pic32c/8.3.1/../../../../pic32c/lib/thumb/v7e-m+fp/hard\libg-musl.a(__fmt_a.o)
 .comment       0x00000053       0x54 c:/program files/microchip/xc32/v4.00/bin/bin/../../lib/gcc/pic32c/8.3.1/../../../../pic32c/lib/thumb/v7e-m+fp/hard\libg-musl.a(__fmt_d.o)
 .comment       0x00000053       0x54 c:/program files/microchip/xc32/v4.00/bin/bin/../../lib/gcc/pic32c/8.3.1/../../../../pic32c/lib/thumb/v7e-m+fp/hard\libg-musl.a(__fmt_fp.o)
 .comment       0x00000053       0x54 c:/program files/microchip/xc32/v4.00/bin/bin/../../lib/gcc/pic32c/8.3.1/../../../../pic32c/lib/thumb/v7e-m+fp/hard\libg-musl.a(__fmt_o.o)
 .comment       0x00000053       0x54 c:/program files/microchip/xc32/v4.00/bin/bin/../../lib/gcc/pic32c/8.3.1/../../../../pic32c/lib/thumb/v7e-m+fp/hard\libg-musl.a(__fmt_s.o)
 .comment       0x00000053       0x54 c:/program files/microchip/xc32/v4.00/bin/bin/../../lib/gcc/pic32c/8.3.1/../../../../pic32c/lib/thumb/v7e-m+fp/hard\libg-musl.a(__fmt_u.o)
 .comment       0x00000053       0x54 c:/program files/microchip/xc32/v4.00/bin/bin/../../lib/gcc/pic32c/8.3.1/../../../../pic32c/lib/thumb/v7e-m+fp/hard\libg-musl.a(__fmt_x.o)
 .comment       0x00000053       0x54 c:/program files/microchip/xc32/v4.00/bin/bin/../../lib/gcc/pic32c/8.3.1/../../../../pic32c/lib/thumb/v7e-m+fp/hard\libg-musl.a(__fwrite.o)
 .comment       0x00000053       0x54 c:/program files/microchip/xc32/v4.00/bin/bin/../../lib/gcc/pic32c/8.3.1/../../../../pic32c/lib/thumb/v7e-m+fp/hard\libg-musl.a(__pop_float.o)
 .comment       0x00000053       0x54 c:/program files/microchip/xc32/v4.00/bin/bin/../../lib/gcc/pic32c/8.3.1/../../../../pic32c/lib/thumb/v7e-m+fp/hard\libg-musl.a(__pop_int.o)
 .comment       0x00000053       0x54 c:/program files/microchip/xc32/v4.00/bin/bin/../../lib/gcc/pic32c/8.3.1/../../../../pic32c/lib/thumb/v7e-m+fp/hard\libg-musl.a(__pop_ptr.o)
 .comment       0x00000053       0x54 c:/program files/microchip/xc32/v4.00/bin/bin/../../lib/gcc/pic32c/8.3.1/../../../../pic32c/lib/thumb/v7e-m+fp/hard\libg-musl.a(toupper.o)
 .comment       0x00000053       0x54 c:/program files/microchip/xc32/v4.00/bin/bin/../../lib/gcc/pic32c/8.3.1/../../../../pic32c/lib/thumb/v7e-m+fp/hard\libm-emfloat.a(lib_a-_FLOOR.o)
 .comment       0x00000053       0x54 c:/program files/microchip/xc32/v4.00/bin/bin/../../lib/gcc/pic32c/8.3.1/../../../../pic32c/lib/thumb/v7e-m+fp/hard\libm-emfloat.a(lib_a-_FMA.o)
 .comment       0x00000053       0x54 c:/program files/microchip/xc32/v4.00/bin/bin/../../lib/gcc/pic32c/8.3.1/thumb/v7e-m+fp/hard\libgcc.a(_udivmoddi4.o)
 .comment       0x00000053       0x54 c:/program files/microchip/xc32/v4.00/bin/bin/../../lib/gcc/pic32c/8.3.1/../../../../pic32c/lib/thumb/v7e-m+fp/hard\libpic32c.a(close.o)
 .comment       0x00000053       0x54 c:/program files/microchip/xc32/v4.00/bin/bin/../../lib/gcc/pic32c/8.3.1/../../../../pic32c/lib/thumb/v7e-m+fp/hard\libpic32c.a(lseek.o)
 .comment       0x00000053       0x54 c:/program files/microchip/xc32/v4.00/bin/bin/../../lib/gcc/pic32c/8.3.1/../../../../pic32c/lib/thumb/v7e-m+fp/hard\libpic32c.a(sbrk.o)
 .comment       0x00000053       0x54 c:/program files/microchip/xc32/v4.00/bin/bin/../../lib/gcc/pic32c/8.3.1/../../../../pic32c/lib/thumb/v7e-m+fp/hard\libpic32c.a(write.o)

.debug_info     0x00000000    0x3ade2
 .debug_info    0x00000000      0x5cf build/sam_e54_xpro/debug/_ext/544748269/bsp.o
 .debug_info    0x000005cf      0xbfe build/sam_e54_xpro/debug/_ext/1062319119/drv_memory_nvmctrl.o
 .debug_info    0x000011cd     0x322c build/sam_e54_xpro/debug/_ext/1062319119/drv_memory.o
 .debug_info    0x000043f9      0xcfe build/sam_e54_xpro/debug/_ext/1062319119/drv_memory_file_system.o
 .debug_info    0x000050f7      0xb87 build/sam_e54_xpro/debug/_ext/2056749927/plib_clock.o
 .debug_info    0x00005c7e      0x344 build/sam_e54_xpro/debug/_ext/2058899413/plib_evsys.o
 .debug_info    0x00005fc2      0x68c build/sam_e54_xpro/debug/_ext/1950920501/plib_mpu.o
 .debug_info    0x0000664e      0x83b build/sam_e54_xpro/debug/_ext/348958103/plib_nvic.o
 .debug_info    0x00006e89      0xd4a build/sam_e54_xpro/debug/_ext/1986180951/plib_nvmctrl.o
 .debug_info    0x00007bd3     0x10eb build/sam_e54_xpro/debug/_ext/348904952/plib_port.o
 .debug_info    0x00008cbe      0x5ed build/sam_e54_xpro/debug/_ext/498645085/xc32_monitor.o
 .debug_info    0x000092ab     0x6a18 build/sam_e54_xpro/debug/_ext/1171329604/ff.o
 .debug_info    0x0000fcc3      0x5e1 build/sam_e54_xpro/debug/_ext/1171329604/ffunicode.o
 .debug_info    0x000102a4     0x1019 build/sam_e54_xpro/debug/_ext/656274803/diskio.o
 .debug_info    0x000112bd     0x4aa6 build/sam_e54_xpro/debug/_ext/743848790/sys_fs.o
 .debug_info    0x00015d63     0x2559 build/sam_e54_xpro/debug/_ext/743848790/sys_fs_media_manager.o
 .debug_info    0x000182bc     0x2517 build/sam_e54_xpro/debug/_ext/743848790/sys_fs_fat_interface.o
 .debug_info    0x0001a7d3     0x1ee9 build/sam_e54_xpro/debug/_ext/68098787/initialization.o
 .debug_info    0x0001c6bc     0x1aa5 build/sam_e54_xpro/debug/_ext/68098787/interrupts.o
 .debug_info    0x0001e161      0x5da build/sam_e54_xpro/debug/_ext/68098787/exceptions.o
 .debug_info    0x0001e73b      0x942 build/sam_e54_xpro/debug/_ext/68098787/startup_xc32.o
 .debug_info    0x0001f07d      0x551 build/sam_e54_xpro/debug/_ext/68098787/tasks.o
 .debug_info    0x0001f5ce      0x6d4 build/sam_e54_xpro/debug/_ext/1360937237/nvm_disk_images.o
 .debug_info    0x0001fca2      0x52c build/sam_e54_xpro/debug/_ext/1360937237/main.o
 .debug_info    0x000201ce      0x945 build/sam_e54_xpro/debug/_ext/1360937237/app.o
 .debug_info    0x00020b13     0x1544 build/sam_e54_xpro/debug/_ext/2060180706/plib_sercom2_usart.o
 .debug_info    0x00022057      0x2db c:/program files/microchip/xc32/v4.00/bin/bin/../../lib/gcc/pic32c/8.3.1/../../../../pic32c/lib/thumb/v7e-m+fp/hard\libpic32c.a(data_init.o)
 .debug_info    0x00022332      0x6b3 c:/program files/microchip/xc32/v4.00/bin/bin/../../lib/gcc/pic32c/8.3.1/../../../../pic32c/lib/thumb/v7e-m+fp/hard\libg-musl.a(__libc_start_main.o)
 .debug_info    0x000229e5      0x5df c:/program files/microchip/xc32/v4.00/bin/bin/../../lib/gcc/pic32c/8.3.1/../../../../pic32c/lib/thumb/v7e-m+fp/hard\libg-musl.a(libc.o)
 .debug_info    0x00022fc4      0x935 c:/program files/microchip/xc32/v4.00/bin/bin/../../lib/gcc/pic32c/8.3.1/../../../../pic32c/lib/thumb/v7e-m+fp/hard\libg-musl.a(stdin.o)
 .debug_info    0x000238f9      0x73f c:/program files/microchip/xc32/v4.00/bin/bin/../../lib/gcc/pic32c/8.3.1/../../../../pic32c/lib/thumb/v7e-m+fp/hard\libg-musl.a(stdout.o)
 .debug_info    0x00024038      0x391 c:/program files/microchip/xc32/v4.00/bin/bin/../../lib/gcc/pic32c/8.3.1/../../../../pic32c/lib/thumb/v7e-m+fp/hard\libg-musl.a(printf.o)
 .debug_info    0x000243c9      0x359 c:/program files/microchip/xc32/v4.00/bin/bin/../../lib/gcc/pic32c/8.3.1/../../../../pic32c/lib/thumb/v7e-m+fp/hard\libg-musl.a(setbuf.o)
 .debug_info    0x00024722      0x31e c:/program files/microchip/xc32/v4.00/bin/bin/../../lib/gcc/pic32c/8.3.1/../../../../pic32c/lib/thumb/v7e-m+fp/hard\libg-musl.a(memcpy.o)
 .debug_info    0x00024a40      0x2dc c:/program files/microchip/xc32/v4.00/bin/bin/../../lib/gcc/pic32c/8.3.1/../../../../pic32c/lib/thumb/v7e-m+fp/hard\libg-musl.a(memset.o)
 .debug_info    0x00024d1c      0x2cd c:/program files/microchip/xc32/v4.00/bin/bin/../../lib/gcc/pic32c/8.3.1/../../../../pic32c/lib/thumb/v7e-m+fp/hard\libg-musl.a(strlen.o)
 .debug_info    0x00024fe9      0x2b1 c:/program files/microchip/xc32/v4.00/bin/bin/../../lib/gcc/pic32c/8.3.1/../../../../pic32c/lib/thumb/v7e-m+fp/hard\libg-musl.a(strcmp.o)
 .debug_info    0x0002529a      0x2db c:/program files/microchip/xc32/v4.00/bin/bin/../../lib/gcc/pic32c/8.3.1/../../../../pic32c/lib/thumb/v7e-m+fp/hard\libg-musl.a(strcpy.o)
 .debug_info    0x00025575      0x317 c:/program files/microchip/xc32/v4.00/bin/bin/../../lib/gcc/pic32c/8.3.1/../../../../pic32c/lib/thumb/v7e-m+fp/hard\libg-musl.a(strncmp.o)
 .debug_info    0x0002588c      0x596 c:/program files/microchip/xc32/v4.00/bin/bin/../../lib/gcc/pic32c/8.3.1/../../../../pic32c/lib/thumb/v7e-m+fp/hard\libg-musl.a(__environ.o)
 .debug_info    0x00025e22      0x979 c:/program files/microchip/xc32/v4.00/bin/bin/../../lib/gcc/pic32c/8.3.1/../../../../pic32c/lib/thumb/v7e-m+fp/hard\libg-musl.a(__stdio_read.o)
 .debug_info    0x0002679b      0x864 c:/program files/microchip/xc32/v4.00/bin/bin/../../lib/gcc/pic32c/8.3.1/../../../../pic32c/lib/thumb/v7e-m+fp/hard\libg-musl.a(__towrite_rw.o)
 .debug_info    0x00026fff      0x836 c:/program files/microchip/xc32/v4.00/bin/bin/../../lib/gcc/pic32c/8.3.1/../../../../pic32c/lib/thumb/v7e-m+fp/hard\libg-musl.a(setvbuf.o)
 .debug_info    0x00027835      0x94d c:/program files/microchip/xc32/v4.00/bin/bin/../../lib/gcc/pic32c/8.3.1/../../../../pic32c/lib/thumb/v7e-m+fp/hard\libg-musl.a(vfprintf.o)
 .debug_info    0x00028182      0x5b9 c:/program files/microchip/xc32/v4.00/bin/bin/../../lib/gcc/pic32c/8.3.1/../../../../pic32c/lib/thumb/v7e-m+fp/hard\libg-musl.a(stpcpy.o)
 .debug_info    0x0002873b      0x6a0 c:/program files/microchip/xc32/v4.00/bin/bin/../../lib/gcc/pic32c/8.3.1/../../../../pic32c/lib/thumb/v7e-m+fp/hard\libg-musl.a(readv.o)
 .debug_info    0x00028ddb     0x14aa c:/program files/microchip/xc32/v4.00/bin/bin/../../lib/gcc/pic32c/8.3.1/../../../../pic32c/lib/thumb/v7e-m+fp/hard\libg-musl.a(malloc.o)
 .debug_info    0x0002a285      0x682 c:/program files/microchip/xc32/v4.00/bin/bin/../../lib/gcc/pic32c/8.3.1/../../../../pic32c/lib/thumb/v7e-m+fp/hard\libg-musl.a(expand_heap.o)
 .debug_info    0x0002a907      0x879 c:/program files/microchip/xc32/v4.00/bin/bin/../../lib/gcc/pic32c/8.3.1/../../../../pic32c/lib/thumb/v7e-m+fp/hard\libg-musl.a(__init_stdio.o)
 .debug_info    0x0002b180      0x855 c:/program files/microchip/xc32/v4.00/bin/bin/../../lib/gcc/pic32c/8.3.1/../../../../pic32c/lib/thumb/v7e-m+fp/hard\libg-musl.a(__out.o)
 .debug_info    0x0002b9d5     0x1017 c:/program files/microchip/xc32/v4.00/bin/bin/../../lib/gcc/pic32c/8.3.1/../../../../pic32c/lib/thumb/v7e-m+fp/hard\libg-musl.a(__printf_core.o)
 .debug_info    0x0002c9ec      0x8f5 c:/program files/microchip/xc32/v4.00/bin/bin/../../lib/gcc/pic32c/8.3.1/../../../../pic32c/lib/thumb/v7e-m+fp/hard\libg-musl.a(__stderr.o)
 .debug_info    0x0002d2e1      0x994 c:/program files/microchip/xc32/v4.00/bin/bin/../../lib/gcc/pic32c/8.3.1/../../../../pic32c/lib/thumb/v7e-m+fp/hard\libg-musl.a(__stdio_close.o)
 .debug_info    0x0002dc75      0xa28 c:/program files/microchip/xc32/v4.00/bin/bin/../../lib/gcc/pic32c/8.3.1/../../../../pic32c/lib/thumb/v7e-m+fp/hard\libg-musl.a(__stdio_write.o)
 .debug_info    0x0002e69d      0x8f5 c:/program files/microchip/xc32/v4.00/bin/bin/../../lib/gcc/pic32c/8.3.1/../../../../pic32c/lib/thumb/v7e-m+fp/hard\libg-musl.a(__stdout.o)
 .debug_info    0x0002ef92      0x7e4 c:/program files/microchip/xc32/v4.00/bin/bin/../../lib/gcc/pic32c/8.3.1/../../../../pic32c/lib/thumb/v7e-m+fp/hard\libg-musl.a(__towrite.o)
 .debug_info    0x0002f776      0x322 c:/program files/microchip/xc32/v4.00/bin/bin/../../lib/gcc/pic32c/8.3.1/../../../../pic32c/lib/thumb/v7e-m+fp/hard\libg-musl.a(atoi.o)
 .debug_info    0x0002fa98      0x67f c:/program files/microchip/xc32/v4.00/bin/bin/../../lib/gcc/pic32c/8.3.1/../../../../pic32c/lib/thumb/v7e-m+fp/hard\libg-musl.a(read.o)
 .debug_info    0x00030117      0x6a4 c:/program files/microchip/xc32/v4.00/bin/bin/../../lib/gcc/pic32c/8.3.1/../../../../pic32c/lib/thumb/v7e-m+fp/hard\libg-musl.a(writev.o)
 .debug_info    0x000307bb      0x5fd c:/program files/microchip/xc32/v4.00/bin/bin/../../lib/gcc/pic32c/8.3.1/../../../../pic32c/lib/thumb/v7e-m+fp/hard\libg-musl.a(tolower.o)
 .debug_info    0x00030db8      0x57a c:/program files/microchip/xc32/v4.00/bin/bin/../../lib/gcc/pic32c/8.3.1/../../../../pic32c/lib/thumb/v7e-m+fp/hard\libg-musl.a(__errno_location.o)
 .debug_info    0x00031332      0x5d1 c:/program files/microchip/xc32/v4.00/bin/bin/../../lib/gcc/pic32c/8.3.1/../../../../pic32c/lib/thumb/v7e-m+fp/hard\libg-musl.a(syscall_ret.o)
 .debug_info    0x00031903      0xbf2 c:/program files/microchip/xc32/v4.00/bin/bin/../../lib/gcc/pic32c/8.3.1/../../../../pic32c/lib/thumb/v7e-m+fp/hard\libg-musl.a(__fmt_a.o)
 .debug_info    0x000324f5      0x8bc c:/program files/microchip/xc32/v4.00/bin/bin/../../lib/gcc/pic32c/8.3.1/../../../../pic32c/lib/thumb/v7e-m+fp/hard\libg-musl.a(__fmt_d.o)
 .debug_info    0x00032db1      0xcda c:/program files/microchip/xc32/v4.00/bin/bin/../../lib/gcc/pic32c/8.3.1/../../../../pic32c/lib/thumb/v7e-m+fp/hard\libg-musl.a(__fmt_fp.o)
 .debug_info    0x00033a8b      0x88d c:/program files/microchip/xc32/v4.00/bin/bin/../../lib/gcc/pic32c/8.3.1/../../../../pic32c/lib/thumb/v7e-m+fp/hard\libg-musl.a(__fmt_o.o)
 .debug_info    0x00034318      0x833 c:/program files/microchip/xc32/v4.00/bin/bin/../../lib/gcc/pic32c/8.3.1/../../../../pic32c/lib/thumb/v7e-m+fp/hard\libg-musl.a(__fmt_s.o)
 .debug_info    0x00034b4b      0x95a c:/program files/microchip/xc32/v4.00/bin/bin/../../lib/gcc/pic32c/8.3.1/../../../../pic32c/lib/thumb/v7e-m+fp/hard\libg-musl.a(__fmt_u.o)
 .debug_info    0x000354a5      0x8f3 c:/program files/microchip/xc32/v4.00/bin/bin/../../lib/gcc/pic32c/8.3.1/../../../../pic32c/lib/thumb/v7e-m+fp/hard\libg-musl.a(__fmt_x.o)
 .debug_info    0x00035d98      0x8bc c:/program files/microchip/xc32/v4.00/bin/bin/../../lib/gcc/pic32c/8.3.1/../../../../pic32c/lib/thumb/v7e-m+fp/hard\libg-musl.a(__fwrite.o)
 .debug_info    0x00036654      0x760 c:/program files/microchip/xc32/v4.00/bin/bin/../../lib/gcc/pic32c/8.3.1/../../../../pic32c/lib/thumb/v7e-m+fp/hard\libg-musl.a(__pop_float.o)
 .debug_info    0x00036db4      0x784 c:/program files/microchip/xc32/v4.00/bin/bin/../../lib/gcc/pic32c/8.3.1/../../../../pic32c/lib/thumb/v7e-m+fp/hard\libg-musl.a(__pop_int.o)
 .debug_info    0x00037538      0x77b c:/program files/microchip/xc32/v4.00/bin/bin/../../lib/gcc/pic32c/8.3.1/../../../../pic32c/lib/thumb/v7e-m+fp/hard\libg-musl.a(__pop_ptr.o)
 .debug_info    0x00037cb3      0x5fd c:/program files/microchip/xc32/v4.00/bin/bin/../../lib/gcc/pic32c/8.3.1/../../../../pic32c/lib/thumb/v7e-m+fp/hard\libg-musl.a(toupper.o)
 .debug_info    0x000382b0       0x26 c:/program files/microchip/xc32/v4.00/bin/bin/../../lib/gcc/pic32c/8.3.1/thumb/v7e-m+fp/hard\libgcc.a(_aeabi_uldivmod.o)
 .debug_info    0x000382d6     0x1fea c:/program files/microchip/xc32/v4.00/bin/bin/../../lib/gcc/pic32c/8.3.1/thumb/v7e-m+fp/hard\libgcc.a(_udivmoddi4.o)
 .debug_info    0x0003a2c0       0x26 c:/program files/microchip/xc32/v4.00/bin/bin/../../lib/gcc/pic32c/8.3.1/thumb/v7e-m+fp/hard\libgcc.a(_dvmd_tls.o)
 .debug_info    0x0003a2e6      0x2bf c:/program files/microchip/xc32/v4.00/bin/bin/../../lib/gcc/pic32c/8.3.1/../../../../pic32c/lib/thumb/v7e-m+fp/hard\libpic32c.a(close.o)
 .debug_info    0x0003a5a5      0x2bf c:/program files/microchip/xc32/v4.00/bin/bin/../../lib/gcc/pic32c/8.3.1/../../../../pic32c/lib/thumb/v7e-m+fp/hard\libpic32c.a(lseek.o)
 .debug_info    0x0003a864      0x2be c:/program files/microchip/xc32/v4.00/bin/bin/../../lib/gcc/pic32c/8.3.1/../../../../pic32c/lib/thumb/v7e-m+fp/hard\libpic32c.a(sbrk.o)
 .debug_info    0x0003ab22      0x2c0 c:/program files/microchip/xc32/v4.00/bin/bin/../../lib/gcc/pic32c/8.3.1/../../../../pic32c/lib/thumb/v7e-m+fp/hard\libpic32c.a(write.o)

.debug_abbrev   0x00000000     0x7486
 .debug_abbrev  0x00000000       0xe0 build/sam_e54_xpro/debug/_ext/544748269/bsp.o
 .debug_abbrev  0x000000e0      0x1b7 build/sam_e54_xpro/debug/_ext/1062319119/drv_memory_nvmctrl.o
 .debug_abbrev  0x00000297      0x532 build/sam_e54_xpro/debug/_ext/1062319119/drv_memory.o
 .debug_abbrev  0x000007c9      0x192 build/sam_e54_xpro/debug/_ext/1062319119/drv_memory_file_system.o
 .debug_abbrev  0x0000095b      0x135 build/sam_e54_xpro/debug/_ext/2056749927/plib_clock.o
 .debug_abbrev  0x00000a90       0x64 build/sam_e54_xpro/debug/_ext/2058899413/plib_evsys.o
 .debug_abbrev  0x00000af4       0xd5 build/sam_e54_xpro/debug/_ext/1950920501/plib_mpu.o
 .debug_abbrev  0x00000bc9      0x1a0 build/sam_e54_xpro/debug/_ext/348958103/plib_nvic.o
 .debug_abbrev  0x00000d69      0x25f build/sam_e54_xpro/debug/_ext/1986180951/plib_nvmctrl.o
 .debug_abbrev  0x00000fc8      0x1e9 build/sam_e54_xpro/debug/_ext/348904952/plib_port.o
 .debug_abbrev  0x000011b1      0x16d build/sam_e54_xpro/debug/_ext/498645085/xc32_monitor.o
 .debug_abbrev  0x0000131e      0x3f3 build/sam_e54_xpro/debug/_ext/1171329604/ff.o
 .debug_abbrev  0x00001711      0x155 build/sam_e54_xpro/debug/_ext/1171329604/ffunicode.o
 .debug_abbrev  0x00001866      0x31e build/sam_e54_xpro/debug/_ext/656274803/diskio.o
 .debug_abbrev  0x00001b84      0x53b build/sam_e54_xpro/debug/_ext/743848790/sys_fs.o
 .debug_abbrev  0x000020bf      0x509 build/sam_e54_xpro/debug/_ext/743848790/sys_fs_media_manager.o
 .debug_abbrev  0x000025c8      0x340 build/sam_e54_xpro/debug/_ext/743848790/sys_fs_fat_interface.o
 .debug_abbrev  0x00002908      0x2b1 build/sam_e54_xpro/debug/_ext/68098787/initialization.o
 .debug_abbrev  0x00002bb9      0x11a build/sam_e54_xpro/debug/_ext/68098787/interrupts.o
 .debug_abbrev  0x00002cd3       0xec build/sam_e54_xpro/debug/_ext/68098787/exceptions.o
 .debug_abbrev  0x00002dbf      0x209 build/sam_e54_xpro/debug/_ext/68098787/startup_xc32.o
 .debug_abbrev  0x00002fc8      0x11e build/sam_e54_xpro/debug/_ext/68098787/tasks.o
 .debug_abbrev  0x000030e6       0xee build/sam_e54_xpro/debug/_ext/1360937237/nvm_disk_images.o
 .debug_abbrev  0x000031d4      0x125 build/sam_e54_xpro/debug/_ext/1360937237/main.o
 .debug_abbrev  0x000032f9      0x1bf build/sam_e54_xpro/debug/_ext/1360937237/app.o
 .debug_abbrev  0x000034b8      0x2b4 build/sam_e54_xpro/debug/_ext/2060180706/plib_sercom2_usart.o
 .debug_abbrev  0x0000376c       0x2e c:/program files/microchip/xc32/v4.00/bin/bin/../../lib/gcc/pic32c/8.3.1/../../../../pic32c/lib/thumb/v7e-m+fp/hard\libpic32c.a(data_init.o)
 .debug_abbrev  0x0000379a      0x126 c:/program files/microchip/xc32/v4.00/bin/bin/../../lib/gcc/pic32c/8.3.1/../../../../pic32c/lib/thumb/v7e-m+fp/hard\libg-musl.a(__libc_start_main.o)
 .debug_abbrev  0x000038c0       0xc7 c:/program files/microchip/xc32/v4.00/bin/bin/../../lib/gcc/pic32c/8.3.1/../../../../pic32c/lib/thumb/v7e-m+fp/hard\libg-musl.a(libc.o)
 .debug_abbrev  0x00003987      0x178 c:/program files/microchip/xc32/v4.00/bin/bin/../../lib/gcc/pic32c/8.3.1/../../../../pic32c/lib/thumb/v7e-m+fp/hard\libg-musl.a(stdin.o)
 .debug_abbrev  0x00003aff      0x157 c:/program files/microchip/xc32/v4.00/bin/bin/../../lib/gcc/pic32c/8.3.1/../../../../pic32c/lib/thumb/v7e-m+fp/hard\libg-musl.a(stdout.o)
 .debug_abbrev  0x00003c56      0x112 c:/program files/microchip/xc32/v4.00/bin/bin/../../lib/gcc/pic32c/8.3.1/../../../../pic32c/lib/thumb/v7e-m+fp/hard\libg-musl.a(printf.o)
 .debug_abbrev  0x00003d68       0xba c:/program files/microchip/xc32/v4.00/bin/bin/../../lib/gcc/pic32c/8.3.1/../../../../pic32c/lib/thumb/v7e-m+fp/hard\libg-musl.a(setbuf.o)
 .debug_abbrev  0x00003e22       0x9c c:/program files/microchip/xc32/v4.00/bin/bin/../../lib/gcc/pic32c/8.3.1/../../../../pic32c/lib/thumb/v7e-m+fp/hard\libg-musl.a(memcpy.o)
 .debug_abbrev  0x00003ebe       0x97 c:/program files/microchip/xc32/v4.00/bin/bin/../../lib/gcc/pic32c/8.3.1/../../../../pic32c/lib/thumb/v7e-m+fp/hard\libg-musl.a(memset.o)
 .debug_abbrev  0x00003f55       0x86 c:/program files/microchip/xc32/v4.00/bin/bin/../../lib/gcc/pic32c/8.3.1/../../../../pic32c/lib/thumb/v7e-m+fp/hard\libg-musl.a(strlen.o)
 .debug_abbrev  0x00003fdb       0x63 c:/program files/microchip/xc32/v4.00/bin/bin/../../lib/gcc/pic32c/8.3.1/../../../../pic32c/lib/thumb/v7e-m+fp/hard\libg-musl.a(strcmp.o)
 .debug_abbrev  0x0000403e       0x8e c:/program files/microchip/xc32/v4.00/bin/bin/../../lib/gcc/pic32c/8.3.1/../../../../pic32c/lib/thumb/v7e-m+fp/hard\libg-musl.a(strcpy.o)
 .debug_abbrev  0x000040cc       0x86 c:/program files/microchip/xc32/v4.00/bin/bin/../../lib/gcc/pic32c/8.3.1/../../../../pic32c/lib/thumb/v7e-m+fp/hard\libg-musl.a(strncmp.o)
 .debug_abbrev  0x00004152       0xc7 c:/program files/microchip/xc32/v4.00/bin/bin/../../lib/gcc/pic32c/8.3.1/../../../../pic32c/lib/thumb/v7e-m+fp/hard\libg-musl.a(__environ.o)
 .debug_abbrev  0x00004219      0x163 c:/program files/microchip/xc32/v4.00/bin/bin/../../lib/gcc/pic32c/8.3.1/../../../../pic32c/lib/thumb/v7e-m+fp/hard\libg-musl.a(__stdio_read.o)
 .debug_abbrev  0x0000437c       0xef c:/program files/microchip/xc32/v4.00/bin/bin/../../lib/gcc/pic32c/8.3.1/../../../../pic32c/lib/thumb/v7e-m+fp/hard\libg-musl.a(__towrite_rw.o)
 .debug_abbrev  0x0000446b      0x158 c:/program files/microchip/xc32/v4.00/bin/bin/../../lib/gcc/pic32c/8.3.1/../../../../pic32c/lib/thumb/v7e-m+fp/hard\libg-musl.a(setvbuf.o)
 .debug_abbrev  0x000045c3      0x180 c:/program files/microchip/xc32/v4.00/bin/bin/../../lib/gcc/pic32c/8.3.1/../../../../pic32c/lib/thumb/v7e-m+fp/hard\libg-musl.a(vfprintf.o)
 .debug_abbrev  0x00004743       0xdf c:/program files/microchip/xc32/v4.00/bin/bin/../../lib/gcc/pic32c/8.3.1/../../../../pic32c/lib/thumb/v7e-m+fp/hard\libg-musl.a(stpcpy.o)
 .debug_abbrev  0x00004822      0x13e c:/program files/microchip/xc32/v4.00/bin/bin/../../lib/gcc/pic32c/8.3.1/../../../../pic32c/lib/thumb/v7e-m+fp/hard\libg-musl.a(readv.o)
 .debug_abbrev  0x00004960      0x413 c:/program files/microchip/xc32/v4.00/bin/bin/../../lib/gcc/pic32c/8.3.1/../../../../pic32c/lib/thumb/v7e-m+fp/hard\libg-musl.a(malloc.o)
 .debug_abbrev  0x00004d73      0x112 c:/program files/microchip/xc32/v4.00/bin/bin/../../lib/gcc/pic32c/8.3.1/../../../../pic32c/lib/thumb/v7e-m+fp/hard\libg-musl.a(expand_heap.o)
 .debug_abbrev  0x00004e85       0xf8 c:/program files/microchip/xc32/v4.00/bin/bin/../../lib/gcc/pic32c/8.3.1/../../../../pic32c/lib/thumb/v7e-m+fp/hard\libg-musl.a(__init_stdio.o)
 .debug_abbrev  0x00004f7d      0x1ac c:/program files/microchip/xc32/v4.00/bin/bin/../../lib/gcc/pic32c/8.3.1/../../../../pic32c/lib/thumb/v7e-m+fp/hard\libg-musl.a(__out.o)
 .debug_abbrev  0x00005129      0x2e8 c:/program files/microchip/xc32/v4.00/bin/bin/../../lib/gcc/pic32c/8.3.1/../../../../pic32c/lib/thumb/v7e-m+fp/hard\libg-musl.a(__printf_core.o)
 .debug_abbrev  0x00005411      0x167 c:/program files/microchip/xc32/v4.00/bin/bin/../../lib/gcc/pic32c/8.3.1/../../../../pic32c/lib/thumb/v7e-m+fp/hard\libg-musl.a(__stderr.o)
 .debug_abbrev  0x00005578      0x135 c:/program files/microchip/xc32/v4.00/bin/bin/../../lib/gcc/pic32c/8.3.1/../../../../pic32c/lib/thumb/v7e-m+fp/hard\libg-musl.a(__stdio_close.o)
 .debug_abbrev  0x000056ad      0x1c4 c:/program files/microchip/xc32/v4.00/bin/bin/../../lib/gcc/pic32c/8.3.1/../../../../pic32c/lib/thumb/v7e-m+fp/hard\libg-musl.a(__stdio_write.o)
 .debug_abbrev  0x00005871      0x167 c:/program files/microchip/xc32/v4.00/bin/bin/../../lib/gcc/pic32c/8.3.1/../../../../pic32c/lib/thumb/v7e-m+fp/hard\libg-musl.a(__stdout.o)
 .debug_abbrev  0x000059d8      0x134 c:/program files/microchip/xc32/v4.00/bin/bin/../../lib/gcc/pic32c/8.3.1/../../../../pic32c/lib/thumb/v7e-m+fp/hard\libg-musl.a(__towrite.o)
 .debug_abbrev  0x00005b0c       0xbb c:/program files/microchip/xc32/v4.00/bin/bin/../../lib/gcc/pic32c/8.3.1/../../../../pic32c/lib/thumb/v7e-m+fp/hard\libg-musl.a(atoi.o)
 .debug_abbrev  0x00005bc7      0x11e c:/program files/microchip/xc32/v4.00/bin/bin/../../lib/gcc/pic32c/8.3.1/../../../../pic32c/lib/thumb/v7e-m+fp/hard\libg-musl.a(read.o)
 .debug_abbrev  0x00005ce5      0x13e c:/program files/microchip/xc32/v4.00/bin/bin/../../lib/gcc/pic32c/8.3.1/../../../../pic32c/lib/thumb/v7e-m+fp/hard\libg-musl.a(writev.o)
 .debug_abbrev  0x00005e23      0x126 c:/program files/microchip/xc32/v4.00/bin/bin/../../lib/gcc/pic32c/8.3.1/../../../../pic32c/lib/thumb/v7e-m+fp/hard\libg-musl.a(tolower.o)
 .debug_abbrev  0x00005f49       0xba c:/program files/microchip/xc32/v4.00/bin/bin/../../lib/gcc/pic32c/8.3.1/../../../../pic32c/lib/thumb/v7e-m+fp/hard\libg-musl.a(__errno_location.o)
 .debug_abbrev  0x00006003       0xdf c:/program files/microchip/xc32/v4.00/bin/bin/../../lib/gcc/pic32c/8.3.1/../../../../pic32c/lib/thumb/v7e-m+fp/hard\libg-musl.a(syscall_ret.o)
 .debug_abbrev  0x000060e2      0x1e3 c:/program files/microchip/xc32/v4.00/bin/bin/../../lib/gcc/pic32c/8.3.1/../../../../pic32c/lib/thumb/v7e-m+fp/hard\libg-musl.a(__fmt_a.o)
 .debug_abbrev  0x000062c5      0x16f c:/program files/microchip/xc32/v4.00/bin/bin/../../lib/gcc/pic32c/8.3.1/../../../../pic32c/lib/thumb/v7e-m+fp/hard\libg-musl.a(__fmt_d.o)
 .debug_abbrev  0x00006434      0x202 c:/program files/microchip/xc32/v4.00/bin/bin/../../lib/gcc/pic32c/8.3.1/../../../../pic32c/lib/thumb/v7e-m+fp/hard\libg-musl.a(__fmt_fp.o)
 .debug_abbrev  0x00006636      0x16f c:/program files/microchip/xc32/v4.00/bin/bin/../../lib/gcc/pic32c/8.3.1/../../../../pic32c/lib/thumb/v7e-m+fp/hard\libg-musl.a(__fmt_o.o)
 .debug_abbrev  0x000067a5      0x14f c:/program files/microchip/xc32/v4.00/bin/bin/../../lib/gcc/pic32c/8.3.1/../../../../pic32c/lib/thumb/v7e-m+fp/hard\libg-musl.a(__fmt_s.o)
 .debug_abbrev  0x000068f4      0x1b2 c:/program files/microchip/xc32/v4.00/bin/bin/../../lib/gcc/pic32c/8.3.1/../../../../pic32c/lib/thumb/v7e-m+fp/hard\libg-musl.a(__fmt_u.o)
 .debug_abbrev  0x00006aa6      0x15e c:/program files/microchip/xc32/v4.00/bin/bin/../../lib/gcc/pic32c/8.3.1/../../../../pic32c/lib/thumb/v7e-m+fp/hard\libg-musl.a(__fmt_x.o)
 .debug_abbrev  0x00006c04      0x188 c:/program files/microchip/xc32/v4.00/bin/bin/../../lib/gcc/pic32c/8.3.1/../../../../pic32c/lib/thumb/v7e-m+fp/hard\libg-musl.a(__fwrite.o)
 .debug_abbrev  0x00006d8c      0x11b c:/program files/microchip/xc32/v4.00/bin/bin/../../lib/gcc/pic32c/8.3.1/../../../../pic32c/lib/thumb/v7e-m+fp/hard\libg-musl.a(__pop_float.o)
 .debug_abbrev  0x00006ea7      0x11b c:/program files/microchip/xc32/v4.00/bin/bin/../../lib/gcc/pic32c/8.3.1/../../../../pic32c/lib/thumb/v7e-m+fp/hard\libg-musl.a(__pop_int.o)
 .debug_abbrev  0x00006fc2      0x12c c:/program files/microchip/xc32/v4.00/bin/bin/../../lib/gcc/pic32c/8.3.1/../../../../pic32c/lib/thumb/v7e-m+fp/hard\libg-musl.a(__pop_ptr.o)
 .debug_abbrev  0x000070ee      0x126 c:/program files/microchip/xc32/v4.00/bin/bin/../../lib/gcc/pic32c/8.3.1/../../../../pic32c/lib/thumb/v7e-m+fp/hard\libg-musl.a(toupper.o)
 .debug_abbrev  0x00007214       0x14 c:/program files/microchip/xc32/v4.00/bin/bin/../../lib/gcc/pic32c/8.3.1/thumb/v7e-m+fp/hard\libgcc.a(_aeabi_uldivmod.o)
 .debug_abbrev  0x00007228      0x192 c:/program files/microchip/xc32/v4.00/bin/bin/../../lib/gcc/pic32c/8.3.1/thumb/v7e-m+fp/hard\libgcc.a(_udivmoddi4.o)
 .debug_abbrev  0x000073ba       0x14 c:/program files/microchip/xc32/v4.00/bin/bin/../../lib/gcc/pic32c/8.3.1/thumb/v7e-m+fp/hard\libgcc.a(_dvmd_tls.o)
 .debug_abbrev  0x000073ce       0x2e c:/program files/microchip/xc32/v4.00/bin/bin/../../lib/gcc/pic32c/8.3.1/../../../../pic32c/lib/thumb/v7e-m+fp/hard\libpic32c.a(close.o)
 .debug_abbrev  0x000073fc       0x2e c:/program files/microchip/xc32/v4.00/bin/bin/../../lib/gcc/pic32c/8.3.1/../../../../pic32c/lib/thumb/v7e-m+fp/hard\libpic32c.a(lseek.o)
 .debug_abbrev  0x0000742a       0x2e c:/program files/microchip/xc32/v4.00/bin/bin/../../lib/gcc/pic32c/8.3.1/../../../../pic32c/lib/thumb/v7e-m+fp/hard\libpic32c.a(sbrk.o)
 .debug_abbrev  0x00007458       0x2e c:/program files/microchip/xc32/v4.00/bin/bin/../../lib/gcc/pic32c/8.3.1/../../../../pic32c/lib/thumb/v7e-m+fp/hard\libpic32c.a(write.o)

.debug_aranges  0x00000000     0x12e8
 .debug_aranges
                0x00000000       0x20 build/sam_e54_xpro/debug/_ext/544748269/bsp.o
 .debug_aranges
                0x00000020       0x58 build/sam_e54_xpro/debug/_ext/1062319119/drv_memory_nvmctrl.o
 .debug_aranges
                0x00000078       0xd8 build/sam_e54_xpro/debug/_ext/1062319119/drv_memory.o
 .debug_aranges
                0x00000150       0x20 build/sam_e54_xpro/debug/_ext/1062319119/drv_memory_file_system.o
 .debug_aranges
                0x00000170       0x20 build/sam_e54_xpro/debug/_ext/2056749927/plib_clock.o
 .debug_aranges
                0x00000190       0x20 build/sam_e54_xpro/debug/_ext/2058899413/plib_evsys.o
 .debug_aranges
                0x000001b0       0x20 build/sam_e54_xpro/debug/_ext/1950920501/plib_mpu.o
 .debug_aranges
                0x000001d0       0x38 build/sam_e54_xpro/debug/_ext/348958103/plib_nvic.o
 .debug_aranges
                0x00000208       0xc0 build/sam_e54_xpro/debug/_ext/1986180951/plib_nvmctrl.o
 .debug_aranges
                0x000002c8       0x70 build/sam_e54_xpro/debug/_ext/348904952/plib_port.o
 .debug_aranges
                0x00000338       0x28 build/sam_e54_xpro/debug/_ext/498645085/xc32_monitor.o
 .debug_aranges
                0x00000360      0x220 build/sam_e54_xpro/debug/_ext/1171329604/ff.o
 .debug_aranges
                0x00000580       0x30 build/sam_e54_xpro/debug/_ext/1171329604/ffunicode.o
 .debug_aranges
                0x000005b0       0x58 build/sam_e54_xpro/debug/_ext/656274803/diskio.o
 .debug_aranges
                0x00000608      0x170 build/sam_e54_xpro/debug/_ext/743848790/sys_fs.o
 .debug_aranges
                0x00000778       0x98 build/sam_e54_xpro/debug/_ext/743848790/sys_fs_media_manager.o
 .debug_aranges
                0x00000810      0x130 build/sam_e54_xpro/debug/_ext/743848790/sys_fs_fat_interface.o
 .debug_aranges
                0x00000940       0x20 build/sam_e54_xpro/debug/_ext/68098787/initialization.o
 .debug_aranges
                0x00000960       0x20 build/sam_e54_xpro/debug/_ext/68098787/interrupts.o
 .debug_aranges
                0x00000980       0x48 build/sam_e54_xpro/debug/_ext/68098787/exceptions.o
 .debug_aranges
                0x000009c8       0x28 build/sam_e54_xpro/debug/_ext/68098787/startup_xc32.o
 .debug_aranges
                0x000009f0       0x20 build/sam_e54_xpro/debug/_ext/68098787/tasks.o
 .debug_aranges
                0x00000a10       0x18 build/sam_e54_xpro/debug/_ext/1360937237/nvm_disk_images.o
 .debug_aranges
                0x00000a28       0x20 build/sam_e54_xpro/debug/_ext/1360937237/main.o
 .debug_aranges
                0x00000a48       0x28 build/sam_e54_xpro/debug/_ext/1360937237/app.o
 .debug_aranges
                0x00000a70       0x98 build/sam_e54_xpro/debug/_ext/2060180706/plib_sercom2_usart.o
 .debug_aranges
                0x00000b08       0x20 c:/program files/microchip/xc32/v4.00/bin/bin/../../lib/gcc/pic32c/8.3.1/../../../../pic32c/lib/thumb/v7e-m+fp/hard\libpic32c.a(data_init.o)
 .debug_aranges
                0x00000b28       0x28 c:/program files/microchip/xc32/v4.00/bin/bin/../../lib/gcc/pic32c/8.3.1/../../../../pic32c/lib/thumb/v7e-m+fp/hard\libg-musl.a(__libc_start_main.o)
 .debug_aranges
                0x00000b50       0x18 c:/program files/microchip/xc32/v4.00/bin/bin/../../lib/gcc/pic32c/8.3.1/../../../../pic32c/lib/thumb/v7e-m+fp/hard\libg-musl.a(libc.o)
 .debug_aranges
                0x00000b68       0x28 c:/program files/microchip/xc32/v4.00/bin/bin/../../lib/gcc/pic32c/8.3.1/../../../../pic32c/lib/thumb/v7e-m+fp/hard\libg-musl.a(stdin.o)
 .debug_aranges
                0x00000b90       0x30 c:/program files/microchip/xc32/v4.00/bin/bin/../../lib/gcc/pic32c/8.3.1/../../../../pic32c/lib/thumb/v7e-m+fp/hard\libg-musl.a(stdout.o)
 .debug_aranges
                0x00000bc0       0x20 c:/program files/microchip/xc32/v4.00/bin/bin/../../lib/gcc/pic32c/8.3.1/../../../../pic32c/lib/thumb/v7e-m+fp/hard\libg-musl.a(printf.o)
 .debug_aranges
                0x00000be0       0x20 c:/program files/microchip/xc32/v4.00/bin/bin/../../lib/gcc/pic32c/8.3.1/../../../../pic32c/lib/thumb/v7e-m+fp/hard\libg-musl.a(setbuf.o)
 .debug_aranges
                0x00000c00       0x20 c:/program files/microchip/xc32/v4.00/bin/bin/../../lib/gcc/pic32c/8.3.1/../../../../pic32c/lib/thumb/v7e-m+fp/hard\libg-musl.a(memcpy.o)
 .debug_aranges
                0x00000c20       0x20 c:/program files/microchip/xc32/v4.00/bin/bin/../../lib/gcc/pic32c/8.3.1/../../../../pic32c/lib/thumb/v7e-m+fp/hard\libg-musl.a(memset.o)
 .debug_aranges
                0x00000c40       0x20 c:/program files/microchip/xc32/v4.00/bin/bin/../../lib/gcc/pic32c/8.3.1/../../../../pic32c/lib/thumb/v7e-m+fp/hard\libg-musl.a(strlen.o)
 .debug_aranges
                0x00000c60       0x20 c:/program files/microchip/xc32/v4.00/bin/bin/../../lib/gcc/pic32c/8.3.1/../../../../pic32c/lib/thumb/v7e-m+fp/hard\libg-musl.a(strcmp.o)
 .debug_aranges
                0x00000c80       0x20 c:/program files/microchip/xc32/v4.00/bin/bin/../../lib/gcc/pic32c/8.3.1/../../../../pic32c/lib/thumb/v7e-m+fp/hard\libg-musl.a(strcpy.o)
 .debug_aranges
                0x00000ca0       0x20 c:/program files/microchip/xc32/v4.00/bin/bin/../../lib/gcc/pic32c/8.3.1/../../../../pic32c/lib/thumb/v7e-m+fp/hard\libg-musl.a(strncmp.o)
 .debug_aranges
                0x00000cc0       0x18 c:/program files/microchip/xc32/v4.00/bin/bin/../../lib/gcc/pic32c/8.3.1/../../../../pic32c/lib/thumb/v7e-m+fp/hard\libg-musl.a(__environ.o)
 .debug_aranges
                0x00000cd8       0x20 c:/program files/microchip/xc32/v4.00/bin/bin/../../lib/gcc/pic32c/8.3.1/../../../../pic32c/lib/thumb/v7e-m+fp/hard\libg-musl.a(__stdio_read.o)
 .debug_aranges
                0x00000cf8       0x20 c:/program files/microchip/xc32/v4.00/bin/bin/../../lib/gcc/pic32c/8.3.1/../../../../pic32c/lib/thumb/v7e-m+fp/hard\libg-musl.a(__towrite_rw.o)
 .debug_aranges
                0x00000d18       0x28 c:/program files/microchip/xc32/v4.00/bin/bin/../../lib/gcc/pic32c/8.3.1/../../../../pic32c/lib/thumb/v7e-m+fp/hard\libg-musl.a(setvbuf.o)
 .debug_aranges
                0x00000d40       0x28 c:/program files/microchip/xc32/v4.00/bin/bin/../../lib/gcc/pic32c/8.3.1/../../../../pic32c/lib/thumb/v7e-m+fp/hard\libg-musl.a(vfprintf.o)
 .debug_aranges
                0x00000d68       0x20 c:/program files/microchip/xc32/v4.00/bin/bin/../../lib/gcc/pic32c/8.3.1/../../../../pic32c/lib/thumb/v7e-m+fp/hard\libg-musl.a(stpcpy.o)
 .debug_aranges
                0x00000d88       0x20 c:/program files/microchip/xc32/v4.00/bin/bin/../../lib/gcc/pic32c/8.3.1/../../../../pic32c/lib/thumb/v7e-m+fp/hard\libg-musl.a(readv.o)
 .debug_aranges
                0x00000da8       0x70 c:/program files/microchip/xc32/v4.00/bin/bin/../../lib/gcc/pic32c/8.3.1/../../../../pic32c/lib/thumb/v7e-m+fp/hard\libg-musl.a(malloc.o)
 .debug_aranges
                0x00000e18       0x20 c:/program files/microchip/xc32/v4.00/bin/bin/../../lib/gcc/pic32c/8.3.1/../../../../pic32c/lib/thumb/v7e-m+fp/hard\libg-musl.a(expand_heap.o)
 .debug_aranges
                0x00000e38       0x28 c:/program files/microchip/xc32/v4.00/bin/bin/../../lib/gcc/pic32c/8.3.1/../../../../pic32c/lib/thumb/v7e-m+fp/hard\libg-musl.a(__init_stdio.o)
 .debug_aranges
                0x00000e60       0x28 c:/program files/microchip/xc32/v4.00/bin/bin/../../lib/gcc/pic32c/8.3.1/../../../../pic32c/lib/thumb/v7e-m+fp/hard\libg-musl.a(__out.o)
 .debug_aranges
                0x00000e88       0x50 c:/program files/microchip/xc32/v4.00/bin/bin/../../lib/gcc/pic32c/8.3.1/../../../../pic32c/lib/thumb/v7e-m+fp/hard\libg-musl.a(__printf_core.o)
 .debug_aranges
                0x00000ed8       0x30 c:/program files/microchip/xc32/v4.00/bin/bin/../../lib/gcc/pic32c/8.3.1/../../../../pic32c/lib/thumb/v7e-m+fp/hard\libg-musl.a(__stderr.o)
 .debug_aranges
                0x00000f08       0x28 c:/program files/microchip/xc32/v4.00/bin/bin/../../lib/gcc/pic32c/8.3.1/../../../../pic32c/lib/thumb/v7e-m+fp/hard\libg-musl.a(__stdio_close.o)
 .debug_aranges
                0x00000f30       0x28 c:/program files/microchip/xc32/v4.00/bin/bin/../../lib/gcc/pic32c/8.3.1/../../../../pic32c/lib/thumb/v7e-m+fp/hard\libg-musl.a(__stdio_write.o)
 .debug_aranges
                0x00000f58       0x30 c:/program files/microchip/xc32/v4.00/bin/bin/../../lib/gcc/pic32c/8.3.1/../../../../pic32c/lib/thumb/v7e-m+fp/hard\libg-musl.a(__stdout.o)
 .debug_aranges
                0x00000f88       0x28 c:/program files/microchip/xc32/v4.00/bin/bin/../../lib/gcc/pic32c/8.3.1/../../../../pic32c/lib/thumb/v7e-m+fp/hard\libg-musl.a(__towrite.o)
 .debug_aranges
                0x00000fb0       0x20 c:/program files/microchip/xc32/v4.00/bin/bin/../../lib/gcc/pic32c/8.3.1/../../../../pic32c/lib/thumb/v7e-m+fp/hard\libg-musl.a(atoi.o)
 .debug_aranges
                0x00000fd0       0x20 c:/program files/microchip/xc32/v4.00/bin/bin/../../lib/gcc/pic32c/8.3.1/../../../../pic32c/lib/thumb/v7e-m+fp/hard\libg-musl.a(read.o)
 .debug_aranges
                0x00000ff0       0x20 c:/program files/microchip/xc32/v4.00/bin/bin/../../lib/gcc/pic32c/8.3.1/../../../../pic32c/lib/thumb/v7e-m+fp/hard\libg-musl.a(writev.o)
 .debug_aranges
                0x00001010       0x28 c:/program files/microchip/xc32/v4.00/bin/bin/../../lib/gcc/pic32c/8.3.1/../../../../pic32c/lib/thumb/v7e-m+fp/hard\libg-musl.a(tolower.o)
 .debug_aranges
                0x00001038       0x18 c:/program files/microchip/xc32/v4.00/bin/bin/../../lib/gcc/pic32c/8.3.1/../../../../pic32c/lib/thumb/v7e-m+fp/hard\libg-musl.a(__errno_location.o)
 .debug_aranges
                0x00001050       0x20 c:/program files/microchip/xc32/v4.00/bin/bin/../../lib/gcc/pic32c/8.3.1/../../../../pic32c/lib/thumb/v7e-m+fp/hard\libg-musl.a(syscall_ret.o)
 .debug_aranges
                0x00001070       0x20 c:/program files/microchip/xc32/v4.00/bin/bin/../../lib/gcc/pic32c/8.3.1/../../../../pic32c/lib/thumb/v7e-m+fp/hard\libg-musl.a(__fmt_a.o)
 .debug_aranges
                0x00001090       0x20 c:/program files/microchip/xc32/v4.00/bin/bin/../../lib/gcc/pic32c/8.3.1/../../../../pic32c/lib/thumb/v7e-m+fp/hard\libg-musl.a(__fmt_d.o)
 .debug_aranges
                0x000010b0       0x20 c:/program files/microchip/xc32/v4.00/bin/bin/../../lib/gcc/pic32c/8.3.1/../../../../pic32c/lib/thumb/v7e-m+fp/hard\libg-musl.a(__fmt_fp.o)
 .debug_aranges
                0x000010d0       0x20 c:/program files/microchip/xc32/v4.00/bin/bin/../../lib/gcc/pic32c/8.3.1/../../../../pic32c/lib/thumb/v7e-m+fp/hard\libg-musl.a(__fmt_o.o)
 .debug_aranges
                0x000010f0       0x20 c:/program files/microchip/xc32/v4.00/bin/bin/../../lib/gcc/pic32c/8.3.1/../../../../pic32c/lib/thumb/v7e-m+fp/hard\libg-musl.a(__fmt_s.o)
 .debug_aranges
                0x00001110       0x28 c:/program files/microchip/xc32/v4.00/bin/bin/../../lib/gcc/pic32c/8.3.1/../../../../pic32c/lib/thumb/v7e-m+fp/hard\libg-musl.a(__fmt_u.o)
 .debug_aranges
                0x00001138       0x20 c:/program files/microchip/xc32/v4.00/bin/bin/../../lib/gcc/pic32c/8.3.1/../../../../pic32c/lib/thumb/v7e-m+fp/hard\libg-musl.a(__fmt_x.o)
 .debug_aranges
                0x00001158       0x28 c:/program files/microchip/xc32/v4.00/bin/bin/../../lib/gcc/pic32c/8.3.1/../../../../pic32c/lib/thumb/v7e-m+fp/hard\libg-musl.a(__fwrite.o)
 .debug_aranges
                0x00001180       0x20 c:/program files/microchip/xc32/v4.00/bin/bin/../../lib/gcc/pic32c/8.3.1/../../../../pic32c/lib/thumb/v7e-m+fp/hard\libg-musl.a(__pop_float.o)
 .debug_aranges
                0x000011a0       0x20 c:/program files/microchip/xc32/v4.00/bin/bin/../../lib/gcc/pic32c/8.3.1/../../../../pic32c/lib/thumb/v7e-m+fp/hard\libg-musl.a(__pop_int.o)
 .debug_aranges
                0x000011c0       0x20 c:/program files/microchip/xc32/v4.00/bin/bin/../../lib/gcc/pic32c/8.3.1/../../../../pic32c/lib/thumb/v7e-m+fp/hard\libg-musl.a(__pop_ptr.o)
 .debug_aranges
                0x000011e0       0x28 c:/program files/microchip/xc32/v4.00/bin/bin/../../lib/gcc/pic32c/8.3.1/../../../../pic32c/lib/thumb/v7e-m+fp/hard\libg-musl.a(toupper.o)
 .debug_aranges
                0x00001208       0x20 c:/program files/microchip/xc32/v4.00/bin/bin/../../lib/gcc/pic32c/8.3.1/thumb/v7e-m+fp/hard\libgcc.a(_aeabi_uldivmod.o)
 .debug_aranges
                0x00001228       0x20 c:/program files/microchip/xc32/v4.00/bin/bin/../../lib/gcc/pic32c/8.3.1/thumb/v7e-m+fp/hard\libgcc.a(_udivmoddi4.o)
 .debug_aranges
                0x00001248       0x20 c:/program files/microchip/xc32/v4.00/bin/bin/../../lib/gcc/pic32c/8.3.1/thumb/v7e-m+fp/hard\libgcc.a(_dvmd_tls.o)
 .debug_aranges
                0x00001268       0x20 c:/program files/microchip/xc32/v4.00/bin/bin/../../lib/gcc/pic32c/8.3.1/../../../../pic32c/lib/thumb/v7e-m+fp/hard\libpic32c.a(close.o)
 .debug_aranges
                0x00001288       0x20 c:/program files/microchip/xc32/v4.00/bin/bin/../../lib/gcc/pic32c/8.3.1/../../../../pic32c/lib/thumb/v7e-m+fp/hard\libpic32c.a(lseek.o)
 .debug_aranges
                0x000012a8       0x20 c:/program files/microchip/xc32/v4.00/bin/bin/../../lib/gcc/pic32c/8.3.1/../../../../pic32c/lib/thumb/v7e-m+fp/hard\libpic32c.a(sbrk.o)
 .debug_aranges
                0x000012c8       0x20 c:/program files/microchip/xc32/v4.00/bin/bin/../../lib/gcc/pic32c/8.3.1/../../../../pic32c/lib/thumb/v7e-m+fp/hard\libpic32c.a(write.o)

.debug_ranges   0x00000000     0x17e0
 .debug_ranges  0x00000000       0x10 build/sam_e54_xpro/debug/_ext/544748269/bsp.o
 .debug_ranges  0x00000010       0x48 build/sam_e54_xpro/debug/_ext/1062319119/drv_memory_nvmctrl.o
 .debug_ranges  0x00000058      0x170 build/sam_e54_xpro/debug/_ext/1062319119/drv_memory.o
 .debug_ranges  0x000001c8       0x10 build/sam_e54_xpro/debug/_ext/1062319119/drv_memory_file_system.o
 .debug_ranges  0x000001d8       0x10 build/sam_e54_xpro/debug/_ext/2056749927/plib_clock.o
 .debug_ranges  0x000001e8       0x10 build/sam_e54_xpro/debug/_ext/2058899413/plib_evsys.o
 .debug_ranges  0x000001f8       0x10 build/sam_e54_xpro/debug/_ext/1950920501/plib_mpu.o
 .debug_ranges  0x00000208       0x28 build/sam_e54_xpro/debug/_ext/348958103/plib_nvic.o
 .debug_ranges  0x00000230       0xb0 build/sam_e54_xpro/debug/_ext/1986180951/plib_nvmctrl.o
 .debug_ranges  0x000002e0       0x60 build/sam_e54_xpro/debug/_ext/348904952/plib_port.o
 .debug_ranges  0x00000340       0x18 build/sam_e54_xpro/debug/_ext/498645085/xc32_monitor.o
 .debug_ranges  0x00000358      0x420 build/sam_e54_xpro/debug/_ext/1171329604/ff.o
 .debug_ranges  0x00000778       0x20 build/sam_e54_xpro/debug/_ext/1171329604/ffunicode.o
 .debug_ranges  0x00000798       0x60 build/sam_e54_xpro/debug/_ext/656274803/diskio.o
 .debug_ranges  0x000007f8      0x5c8 build/sam_e54_xpro/debug/_ext/743848790/sys_fs.o
 .debug_ranges  0x00000dc0      0x110 build/sam_e54_xpro/debug/_ext/743848790/sys_fs_media_manager.o
 .debug_ranges  0x00000ed0      0x120 build/sam_e54_xpro/debug/_ext/743848790/sys_fs_fat_interface.o
 .debug_ranges  0x00000ff0       0x10 build/sam_e54_xpro/debug/_ext/68098787/initialization.o
 .debug_ranges  0x00001000       0x10 build/sam_e54_xpro/debug/_ext/68098787/interrupts.o
 .debug_ranges  0x00001010       0x38 build/sam_e54_xpro/debug/_ext/68098787/exceptions.o
 .debug_ranges  0x00001048       0x18 build/sam_e54_xpro/debug/_ext/68098787/startup_xc32.o
 .debug_ranges  0x00001060       0x10 build/sam_e54_xpro/debug/_ext/68098787/tasks.o
 .debug_ranges  0x00001070       0x10 build/sam_e54_xpro/debug/_ext/1360937237/main.o
 .debug_ranges  0x00001080       0x18 build/sam_e54_xpro/debug/_ext/1360937237/app.o
 .debug_ranges  0x00001098       0x88 build/sam_e54_xpro/debug/_ext/2060180706/plib_sercom2_usart.o
 .debug_ranges  0x00001120       0x10 c:/program files/microchip/xc32/v4.00/bin/bin/../../lib/gcc/pic32c/8.3.1/../../../../pic32c/lib/thumb/v7e-m+fp/hard\libpic32c.a(data_init.o)
 .debug_ranges  0x00001130       0x40 c:/program files/microchip/xc32/v4.00/bin/bin/../../lib/gcc/pic32c/8.3.1/../../../../pic32c/lib/thumb/v7e-m+fp/hard\libg-musl.a(__libc_start_main.o)
 .debug_ranges  0x00001170       0x18 c:/program files/microchip/xc32/v4.00/bin/bin/../../lib/gcc/pic32c/8.3.1/../../../../pic32c/lib/thumb/v7e-m+fp/hard\libg-musl.a(stdin.o)
 .debug_ranges  0x00001188       0x20 c:/program files/microchip/xc32/v4.00/bin/bin/../../lib/gcc/pic32c/8.3.1/../../../../pic32c/lib/thumb/v7e-m+fp/hard\libg-musl.a(stdout.o)
 .debug_ranges  0x000011a8       0x10 c:/program files/microchip/xc32/v4.00/bin/bin/../../lib/gcc/pic32c/8.3.1/../../../../pic32c/lib/thumb/v7e-m+fp/hard\libg-musl.a(printf.o)
 .debug_ranges  0x000011b8       0x10 c:/program files/microchip/xc32/v4.00/bin/bin/../../lib/gcc/pic32c/8.3.1/../../../../pic32c/lib/thumb/v7e-m+fp/hard\libg-musl.a(setbuf.o)
 .debug_ranges  0x000011c8       0x10 c:/program files/microchip/xc32/v4.00/bin/bin/../../lib/gcc/pic32c/8.3.1/../../../../pic32c/lib/thumb/v7e-m+fp/hard\libg-musl.a(memcpy.o)
 .debug_ranges  0x000011d8       0x10 c:/program files/microchip/xc32/v4.00/bin/bin/../../lib/gcc/pic32c/8.3.1/../../../../pic32c/lib/thumb/v7e-m+fp/hard\libg-musl.a(memset.o)
 .debug_ranges  0x000011e8       0x10 c:/program files/microchip/xc32/v4.00/bin/bin/../../lib/gcc/pic32c/8.3.1/../../../../pic32c/lib/thumb/v7e-m+fp/hard\libg-musl.a(strlen.o)
 .debug_ranges  0x000011f8       0x10 c:/program files/microchip/xc32/v4.00/bin/bin/../../lib/gcc/pic32c/8.3.1/../../../../pic32c/lib/thumb/v7e-m+fp/hard\libg-musl.a(strcmp.o)
 .debug_ranges  0x00001208       0x10 c:/program files/microchip/xc32/v4.00/bin/bin/../../lib/gcc/pic32c/8.3.1/../../../../pic32c/lib/thumb/v7e-m+fp/hard\libg-musl.a(strcpy.o)
 .debug_ranges  0x00001218       0x10 c:/program files/microchip/xc32/v4.00/bin/bin/../../lib/gcc/pic32c/8.3.1/../../../../pic32c/lib/thumb/v7e-m+fp/hard\libg-musl.a(strncmp.o)
 .debug_ranges  0x00001228       0x10 c:/program files/microchip/xc32/v4.00/bin/bin/../../lib/gcc/pic32c/8.3.1/../../../../pic32c/lib/thumb/v7e-m+fp/hard\libg-musl.a(__stdio_read.o)
 .debug_ranges  0x00001238       0x10 c:/program files/microchip/xc32/v4.00/bin/bin/../../lib/gcc/pic32c/8.3.1/../../../../pic32c/lib/thumb/v7e-m+fp/hard\libg-musl.a(__towrite_rw.o)
 .debug_ranges  0x00001248       0x18 c:/program files/microchip/xc32/v4.00/bin/bin/../../lib/gcc/pic32c/8.3.1/../../../../pic32c/lib/thumb/v7e-m+fp/hard\libg-musl.a(setvbuf.o)
 .debug_ranges  0x00001260       0x18 c:/program files/microchip/xc32/v4.00/bin/bin/../../lib/gcc/pic32c/8.3.1/../../../../pic32c/lib/thumb/v7e-m+fp/hard\libg-musl.a(vfprintf.o)
 .debug_ranges  0x00001278       0x10 c:/program files/microchip/xc32/v4.00/bin/bin/../../lib/gcc/pic32c/8.3.1/../../../../pic32c/lib/thumb/v7e-m+fp/hard\libg-musl.a(stpcpy.o)
 .debug_ranges  0x00001288       0x10 c:/program files/microchip/xc32/v4.00/bin/bin/../../lib/gcc/pic32c/8.3.1/../../../../pic32c/lib/thumb/v7e-m+fp/hard\libg-musl.a(readv.o)
 .debug_ranges  0x00001298      0x1a0 c:/program files/microchip/xc32/v4.00/bin/bin/../../lib/gcc/pic32c/8.3.1/../../../../pic32c/lib/thumb/v7e-m+fp/hard\libg-musl.a(malloc.o)
 .debug_ranges  0x00001438       0x10 c:/program files/microchip/xc32/v4.00/bin/bin/../../lib/gcc/pic32c/8.3.1/../../../../pic32c/lib/thumb/v7e-m+fp/hard\libg-musl.a(expand_heap.o)
 .debug_ranges  0x00001448       0x18 c:/program files/microchip/xc32/v4.00/bin/bin/../../lib/gcc/pic32c/8.3.1/../../../../pic32c/lib/thumb/v7e-m+fp/hard\libg-musl.a(__init_stdio.o)
 .debug_ranges  0x00001460       0x18 c:/program files/microchip/xc32/v4.00/bin/bin/../../lib/gcc/pic32c/8.3.1/../../../../pic32c/lib/thumb/v7e-m+fp/hard\libg-musl.a(__out.o)
 .debug_ranges  0x00001478       0x68 c:/program files/microchip/xc32/v4.00/bin/bin/../../lib/gcc/pic32c/8.3.1/../../../../pic32c/lib/thumb/v7e-m+fp/hard\libg-musl.a(__printf_core.o)
 .debug_ranges  0x000014e0       0x20 c:/program files/microchip/xc32/v4.00/bin/bin/../../lib/gcc/pic32c/8.3.1/../../../../pic32c/lib/thumb/v7e-m+fp/hard\libg-musl.a(__stderr.o)
 .debug_ranges  0x00001500       0x18 c:/program files/microchip/xc32/v4.00/bin/bin/../../lib/gcc/pic32c/8.3.1/../../../../pic32c/lib/thumb/v7e-m+fp/hard\libg-musl.a(__stdio_close.o)
 .debug_ranges  0x00001518       0x30 c:/program files/microchip/xc32/v4.00/bin/bin/../../lib/gcc/pic32c/8.3.1/../../../../pic32c/lib/thumb/v7e-m+fp/hard\libg-musl.a(__stdio_write.o)
 .debug_ranges  0x00001548       0x20 c:/program files/microchip/xc32/v4.00/bin/bin/../../lib/gcc/pic32c/8.3.1/../../../../pic32c/lib/thumb/v7e-m+fp/hard\libg-musl.a(__stdout.o)
 .debug_ranges  0x00001568       0x18 c:/program files/microchip/xc32/v4.00/bin/bin/../../lib/gcc/pic32c/8.3.1/../../../../pic32c/lib/thumb/v7e-m+fp/hard\libg-musl.a(__towrite.o)
 .debug_ranges  0x00001580       0x10 c:/program files/microchip/xc32/v4.00/bin/bin/../../lib/gcc/pic32c/8.3.1/../../../../pic32c/lib/thumb/v7e-m+fp/hard\libg-musl.a(atoi.o)
 .debug_ranges  0x00001590       0x10 c:/program files/microchip/xc32/v4.00/bin/bin/../../lib/gcc/pic32c/8.3.1/../../../../pic32c/lib/thumb/v7e-m+fp/hard\libg-musl.a(read.o)
 .debug_ranges  0x000015a0       0x10 c:/program files/microchip/xc32/v4.00/bin/bin/../../lib/gcc/pic32c/8.3.1/../../../../pic32c/lib/thumb/v7e-m+fp/hard\libg-musl.a(writev.o)
 .debug_ranges  0x000015b0       0x18 c:/program files/microchip/xc32/v4.00/bin/bin/../../lib/gcc/pic32c/8.3.1/../../../../pic32c/lib/thumb/v7e-m+fp/hard\libg-musl.a(tolower.o)
 .debug_ranges  0x000015c8       0x10 c:/program files/microchip/xc32/v4.00/bin/bin/../../lib/gcc/pic32c/8.3.1/../../../../pic32c/lib/thumb/v7e-m+fp/hard\libg-musl.a(syscall_ret.o)
 .debug_ranges  0x000015d8       0x10 c:/program files/microchip/xc32/v4.00/bin/bin/../../lib/gcc/pic32c/8.3.1/../../../../pic32c/lib/thumb/v7e-m+fp/hard\libg-musl.a(__fmt_a.o)
 .debug_ranges  0x000015e8       0x10 c:/program files/microchip/xc32/v4.00/bin/bin/../../lib/gcc/pic32c/8.3.1/../../../../pic32c/lib/thumb/v7e-m+fp/hard\libg-musl.a(__fmt_d.o)
 .debug_ranges  0x000015f8       0x10 c:/program files/microchip/xc32/v4.00/bin/bin/../../lib/gcc/pic32c/8.3.1/../../../../pic32c/lib/thumb/v7e-m+fp/hard\libg-musl.a(__fmt_fp.o)
 .debug_ranges  0x00001608       0x10 c:/program files/microchip/xc32/v4.00/bin/bin/../../lib/gcc/pic32c/8.3.1/../../../../pic32c/lib/thumb/v7e-m+fp/hard\libg-musl.a(__fmt_o.o)
 .debug_ranges  0x00001618       0x10 c:/program files/microchip/xc32/v4.00/bin/bin/../../lib/gcc/pic32c/8.3.1/../../../../pic32c/lib/thumb/v7e-m+fp/hard\libg-musl.a(__fmt_s.o)
 .debug_ranges  0x00001628       0x18 c:/program files/microchip/xc32/v4.00/bin/bin/../../lib/gcc/pic32c/8.3.1/../../../../pic32c/lib/thumb/v7e-m+fp/hard\libg-musl.a(__fmt_u.o)
 .debug_ranges  0x00001640       0x10 c:/program files/microchip/xc32/v4.00/bin/bin/../../lib/gcc/pic32c/8.3.1/../../../../pic32c/lib/thumb/v7e-m+fp/hard\libg-musl.a(__fmt_x.o)
 .debug_ranges  0x00001650       0x30 c:/program files/microchip/xc32/v4.00/bin/bin/../../lib/gcc/pic32c/8.3.1/../../../../pic32c/lib/thumb/v7e-m+fp/hard\libg-musl.a(__fwrite.o)
 .debug_ranges  0x00001680       0x10 c:/program files/microchip/xc32/v4.00/bin/bin/../../lib/gcc/pic32c/8.3.1/../../../../pic32c/lib/thumb/v7e-m+fp/hard\libg-musl.a(__pop_float.o)
 .debug_ranges  0x00001690       0x10 c:/program files/microchip/xc32/v4.00/bin/bin/../../lib/gcc/pic32c/8.3.1/../../../../pic32c/lib/thumb/v7e-m+fp/hard\libg-musl.a(__pop_int.o)
 .debug_ranges  0x000016a0       0x10 c:/program files/microchip/xc32/v4.00/bin/bin/../../lib/gcc/pic32c/8.3.1/../../../../pic32c/lib/thumb/v7e-m+fp/hard\libg-musl.a(__pop_ptr.o)
 .debug_ranges  0x000016b0       0x18 c:/program files/microchip/xc32/v4.00/bin/bin/../../lib/gcc/pic32c/8.3.1/../../../../pic32c/lib/thumb/v7e-m+fp/hard\libg-musl.a(toupper.o)
 .debug_ranges  0x000016c8       0xd8 c:/program files/microchip/xc32/v4.00/bin/bin/../../lib/gcc/pic32c/8.3.1/thumb/v7e-m+fp/hard\libgcc.a(_udivmoddi4.o)
 .debug_ranges  0x000017a0       0x10 c:/program files/microchip/xc32/v4.00/bin/bin/../../lib/gcc/pic32c/8.3.1/../../../../pic32c/lib/thumb/v7e-m+fp/hard\libpic32c.a(close.o)
 .debug_ranges  0x000017b0       0x10 c:/program files/microchip/xc32/v4.00/bin/bin/../../lib/gcc/pic32c/8.3.1/../../../../pic32c/lib/thumb/v7e-m+fp/hard\libpic32c.a(lseek.o)
 .debug_ranges  0x000017c0       0x10 c:/program files/microchip/xc32/v4.00/bin/bin/../../lib/gcc/pic32c/8.3.1/../../../../pic32c/lib/thumb/v7e-m+fp/hard\libpic32c.a(sbrk.o)
 .debug_ranges  0x000017d0       0x10 c:/program files/microchip/xc32/v4.00/bin/bin/../../lib/gcc/pic32c/8.3.1/../../../../pic32c/lib/thumb/v7e-m+fp/hard\libpic32c.a(write.o)

.debug_line     0x00000000    0x16437
 .debug_line    0x00000000      0x156 build/sam_e54_xpro/debug/_ext/544748269/bsp.o
 .debug_line    0x00000156      0x3ed build/sam_e54_xpro/debug/_ext/1062319119/drv_memory_nvmctrl.o
 .debug_line    0x00000543     0x1201 build/sam_e54_xpro/debug/_ext/1062319119/drv_memory.o
 .debug_line    0x00001744      0x204 build/sam_e54_xpro/debug/_ext/1062319119/drv_memory_file_system.o
 .debug_line    0x00001948      0x28f build/sam_e54_xpro/debug/_ext/2056749927/plib_clock.o
 .debug_line    0x00001bd7       0xec build/sam_e54_xpro/debug/_ext/2058899413/plib_evsys.o
 .debug_line    0x00001cc3      0x14a build/sam_e54_xpro/debug/_ext/1950920501/plib_mpu.o
 .debug_line    0x00001e0d      0x256 build/sam_e54_xpro/debug/_ext/348958103/plib_nvic.o
 .debug_line    0x00002063      0x4e1 build/sam_e54_xpro/debug/_ext/1986180951/plib_nvmctrl.o
 .debug_line    0x00002544      0x2e2 build/sam_e54_xpro/debug/_ext/348904952/plib_port.o
 .debug_line    0x00002826      0x29e build/sam_e54_xpro/debug/_ext/498645085/xc32_monitor.o
 .debug_line    0x00002ac4     0x4d7c build/sam_e54_xpro/debug/_ext/1171329604/ff.o
 .debug_line    0x00007840      0x2f5 build/sam_e54_xpro/debug/_ext/1171329604/ffunicode.o
 .debug_line    0x00007b35      0x412 build/sam_e54_xpro/debug/_ext/656274803/diskio.o
 .debug_line    0x00007f47     0x31d8 build/sam_e54_xpro/debug/_ext/743848790/sys_fs.o
 .debug_line    0x0000b11f      0xe1e build/sam_e54_xpro/debug/_ext/743848790/sys_fs_media_manager.o
 .debug_line    0x0000bf3d      0x9f1 build/sam_e54_xpro/debug/_ext/743848790/sys_fs_fat_interface.o
 .debug_line    0x0000c92e      0x4f5 build/sam_e54_xpro/debug/_ext/68098787/initialization.o
 .debug_line    0x0000ce23      0x208 build/sam_e54_xpro/debug/_ext/68098787/interrupts.o
 .debug_line    0x0000d02b      0x254 build/sam_e54_xpro/debug/_ext/68098787/exceptions.o
 .debug_line    0x0000d27f      0x2ac build/sam_e54_xpro/debug/_ext/68098787/startup_xc32.o
 .debug_line    0x0000d52b      0x25d build/sam_e54_xpro/debug/_ext/68098787/tasks.o
 .debug_line    0x0000d788      0x1e9 build/sam_e54_xpro/debug/_ext/1360937237/nvm_disk_images.o
 .debug_line    0x0000d971      0x1e4 build/sam_e54_xpro/debug/_ext/1360937237/main.o
 .debug_line    0x0000db55      0x20d build/sam_e54_xpro/debug/_ext/1360937237/app.o
 .debug_line    0x0000dd62      0x62d build/sam_e54_xpro/debug/_ext/2060180706/plib_sercom2_usart.o
 .debug_line    0x0000e38f      0x110 c:/program files/microchip/xc32/v4.00/bin/bin/../../lib/gcc/pic32c/8.3.1/../../../../pic32c/lib/thumb/v7e-m+fp/hard\libpic32c.a(data_init.o)
 .debug_line    0x0000e49f      0x24c c:/program files/microchip/xc32/v4.00/bin/bin/../../lib/gcc/pic32c/8.3.1/../../../../pic32c/lib/thumb/v7e-m+fp/hard\libg-musl.a(__libc_start_main.o)
 .debug_line    0x0000e6eb      0x132 c:/program files/microchip/xc32/v4.00/bin/bin/../../lib/gcc/pic32c/8.3.1/../../../../pic32c/lib/thumb/v7e-m+fp/hard\libg-musl.a(libc.o)
 .debug_line    0x0000e81d      0x1dd c:/program files/microchip/xc32/v4.00/bin/bin/../../lib/gcc/pic32c/8.3.1/../../../../pic32c/lib/thumb/v7e-m+fp/hard\libg-musl.a(stdin.o)
 .debug_line    0x0000e9fa      0x208 c:/program files/microchip/xc32/v4.00/bin/bin/../../lib/gcc/pic32c/8.3.1/../../../../pic32c/lib/thumb/v7e-m+fp/hard\libg-musl.a(stdout.o)
 .debug_line    0x0000ec02      0x16e c:/program files/microchip/xc32/v4.00/bin/bin/../../lib/gcc/pic32c/8.3.1/../../../../pic32c/lib/thumb/v7e-m+fp/hard\libg-musl.a(printf.o)
 .debug_line    0x0000ed70      0x13b c:/program files/microchip/xc32/v4.00/bin/bin/../../lib/gcc/pic32c/8.3.1/../../../../pic32c/lib/thumb/v7e-m+fp/hard\libg-musl.a(setbuf.o)
 .debug_line    0x0000eeab       0xf2 c:/program files/microchip/xc32/v4.00/bin/bin/../../lib/gcc/pic32c/8.3.1/../../../../pic32c/lib/thumb/v7e-m+fp/hard\libg-musl.a(memcpy.o)
 .debug_line    0x0000ef9d       0xea c:/program files/microchip/xc32/v4.00/bin/bin/../../lib/gcc/pic32c/8.3.1/../../../../pic32c/lib/thumb/v7e-m+fp/hard\libg-musl.a(memset.o)
 .debug_line    0x0000f087       0xe6 c:/program files/microchip/xc32/v4.00/bin/bin/../../lib/gcc/pic32c/8.3.1/../../../../pic32c/lib/thumb/v7e-m+fp/hard\libg-musl.a(strlen.o)
 .debug_line    0x0000f16d       0xbd c:/program files/microchip/xc32/v4.00/bin/bin/../../lib/gcc/pic32c/8.3.1/../../../../pic32c/lib/thumb/v7e-m+fp/hard\libg-musl.a(strcmp.o)
 .debug_line    0x0000f22a       0xb5 c:/program files/microchip/xc32/v4.00/bin/bin/../../lib/gcc/pic32c/8.3.1/../../../../pic32c/lib/thumb/v7e-m+fp/hard\libg-musl.a(strcpy.o)
 .debug_line    0x0000f2df       0xee c:/program files/microchip/xc32/v4.00/bin/bin/../../lib/gcc/pic32c/8.3.1/../../../../pic32c/lib/thumb/v7e-m+fp/hard\libg-musl.a(strncmp.o)
 .debug_line    0x0000f3cd      0x19f c:/program files/microchip/xc32/v4.00/bin/bin/../../lib/gcc/pic32c/8.3.1/../../../../pic32c/lib/thumb/v7e-m+fp/hard\libg-musl.a(__environ.o)
 .debug_line    0x0000f56c      0x2cc c:/program files/microchip/xc32/v4.00/bin/bin/../../lib/gcc/pic32c/8.3.1/../../../../pic32c/lib/thumb/v7e-m+fp/hard\libg-musl.a(__stdio_read.o)
 .debug_line    0x0000f838      0x202 c:/program files/microchip/xc32/v4.00/bin/bin/../../lib/gcc/pic32c/8.3.1/../../../../pic32c/lib/thumb/v7e-m+fp/hard\libg-musl.a(__towrite_rw.o)
 .debug_line    0x0000fa3a      0x2af c:/program files/microchip/xc32/v4.00/bin/bin/../../lib/gcc/pic32c/8.3.1/../../../../pic32c/lib/thumb/v7e-m+fp/hard\libg-musl.a(setvbuf.o)
 .debug_line    0x0000fce9      0x209 c:/program files/microchip/xc32/v4.00/bin/bin/../../lib/gcc/pic32c/8.3.1/../../../../pic32c/lib/thumb/v7e-m+fp/hard\libg-musl.a(vfprintf.o)
 .debug_line    0x0000fef2      0x1d4 c:/program files/microchip/xc32/v4.00/bin/bin/../../lib/gcc/pic32c/8.3.1/../../../../pic32c/lib/thumb/v7e-m+fp/hard\libg-musl.a(stpcpy.o)
 .debug_line    0x000100c6      0x250 c:/program files/microchip/xc32/v4.00/bin/bin/../../lib/gcc/pic32c/8.3.1/../../../../pic32c/lib/thumb/v7e-m+fp/hard\libg-musl.a(readv.o)
 .debug_line    0x00010316      0xad3 c:/program files/microchip/xc32/v4.00/bin/bin/../../lib/gcc/pic32c/8.3.1/../../../../pic32c/lib/thumb/v7e-m+fp/hard\libg-musl.a(malloc.o)
 .debug_line    0x00010de9      0x1ee c:/program files/microchip/xc32/v4.00/bin/bin/../../lib/gcc/pic32c/8.3.1/../../../../pic32c/lib/thumb/v7e-m+fp/hard\libg-musl.a(expand_heap.o)
 .debug_line    0x00010fd7      0x1eb c:/program files/microchip/xc32/v4.00/bin/bin/../../lib/gcc/pic32c/8.3.1/../../../../pic32c/lib/thumb/v7e-m+fp/hard\libg-musl.a(__init_stdio.o)
 .debug_line    0x000111c2      0x2b9 c:/program files/microchip/xc32/v4.00/bin/bin/../../lib/gcc/pic32c/8.3.1/../../../../pic32c/lib/thumb/v7e-m+fp/hard\libg-musl.a(__out.o)
 .debug_line    0x0001147b      0x71f c:/program files/microchip/xc32/v4.00/bin/bin/../../lib/gcc/pic32c/8.3.1/../../../../pic32c/lib/thumb/v7e-m+fp/hard\libg-musl.a(__printf_core.o)
 .debug_line    0x00011b9a      0x1f3 c:/program files/microchip/xc32/v4.00/bin/bin/../../lib/gcc/pic32c/8.3.1/../../../../pic32c/lib/thumb/v7e-m+fp/hard\libg-musl.a(__stderr.o)
 .debug_line    0x00011d8d      0x30f c:/program files/microchip/xc32/v4.00/bin/bin/../../lib/gcc/pic32c/8.3.1/../../../../pic32c/lib/thumb/v7e-m+fp/hard\libg-musl.a(__stdio_close.o)
 .debug_line    0x0001209c      0x3c4 c:/program files/microchip/xc32/v4.00/bin/bin/../../lib/gcc/pic32c/8.3.1/../../../../pic32c/lib/thumb/v7e-m+fp/hard\libg-musl.a(__stdio_write.o)
 .debug_line    0x00012460      0x1f3 c:/program files/microchip/xc32/v4.00/bin/bin/../../lib/gcc/pic32c/8.3.1/../../../../pic32c/lib/thumb/v7e-m+fp/hard\libg-musl.a(__stdout.o)
 .debug_line    0x00012653      0x20f c:/program files/microchip/xc32/v4.00/bin/bin/../../lib/gcc/pic32c/8.3.1/../../../../pic32c/lib/thumb/v7e-m+fp/hard\libg-musl.a(__towrite.o)
 .debug_line    0x00012862      0x177 c:/program files/microchip/xc32/v4.00/bin/bin/../../lib/gcc/pic32c/8.3.1/../../../../pic32c/lib/thumb/v7e-m+fp/hard\libg-musl.a(atoi.o)
 .debug_line    0x000129d9      0x248 c:/program files/microchip/xc32/v4.00/bin/bin/../../lib/gcc/pic32c/8.3.1/../../../../pic32c/lib/thumb/v7e-m+fp/hard\libg-musl.a(read.o)
 .debug_line    0x00012c21      0x251 c:/program files/microchip/xc32/v4.00/bin/bin/../../lib/gcc/pic32c/8.3.1/../../../../pic32c/lib/thumb/v7e-m+fp/hard\libg-musl.a(writev.o)
 .debug_line    0x00012e72      0x1dc c:/program files/microchip/xc32/v4.00/bin/bin/../../lib/gcc/pic32c/8.3.1/../../../../pic32c/lib/thumb/v7e-m+fp/hard\libg-musl.a(tolower.o)
 .debug_line    0x0001304e      0x1ad c:/program files/microchip/xc32/v4.00/bin/bin/../../lib/gcc/pic32c/8.3.1/../../../../pic32c/lib/thumb/v7e-m+fp/hard\libg-musl.a(__errno_location.o)
 .debug_line    0x000131fb      0x1e7 c:/program files/microchip/xc32/v4.00/bin/bin/../../lib/gcc/pic32c/8.3.1/../../../../pic32c/lib/thumb/v7e-m+fp/hard\libg-musl.a(syscall_ret.o)
 .debug_line    0x000133e2      0x6ad c:/program files/microchip/xc32/v4.00/bin/bin/../../lib/gcc/pic32c/8.3.1/../../../../pic32c/lib/thumb/v7e-m+fp/hard\libg-musl.a(__fmt_a.o)
 .debug_line    0x00013a8f      0x2af c:/program files/microchip/xc32/v4.00/bin/bin/../../lib/gcc/pic32c/8.3.1/../../../../pic32c/lib/thumb/v7e-m+fp/hard\libg-musl.a(__fmt_d.o)
 .debug_line    0x00013d3e      0x6d0 c:/program files/microchip/xc32/v4.00/bin/bin/../../lib/gcc/pic32c/8.3.1/../../../../pic32c/lib/thumb/v7e-m+fp/hard\libg-musl.a(__fmt_fp.o)
 .debug_line    0x0001440e      0x259 c:/program files/microchip/xc32/v4.00/bin/bin/../../lib/gcc/pic32c/8.3.1/../../../../pic32c/lib/thumb/v7e-m+fp/hard\libg-musl.a(__fmt_o.o)
 .debug_line    0x00014667      0x29a c:/program files/microchip/xc32/v4.00/bin/bin/../../lib/gcc/pic32c/8.3.1/../../../../pic32c/lib/thumb/v7e-m+fp/hard\libg-musl.a(__fmt_s.o)
 .debug_line    0x00014901      0x2e3 c:/program files/microchip/xc32/v4.00/bin/bin/../../lib/gcc/pic32c/8.3.1/../../../../pic32c/lib/thumb/v7e-m+fp/hard\libg-musl.a(__fmt_u.o)
 .debug_line    0x00014be4      0x38e c:/program files/microchip/xc32/v4.00/bin/bin/../../lib/gcc/pic32c/8.3.1/../../../../pic32c/lib/thumb/v7e-m+fp/hard\libg-musl.a(__fmt_x.o)
 .debug_line    0x00014f72      0x27c c:/program files/microchip/xc32/v4.00/bin/bin/../../lib/gcc/pic32c/8.3.1/../../../../pic32c/lib/thumb/v7e-m+fp/hard\libg-musl.a(__fwrite.o)
 .debug_line    0x000151ee      0x1f7 c:/program files/microchip/xc32/v4.00/bin/bin/../../lib/gcc/pic32c/8.3.1/../../../../pic32c/lib/thumb/v7e-m+fp/hard\libg-musl.a(__pop_float.o)
 .debug_line    0x000153e5      0x28d c:/program files/microchip/xc32/v4.00/bin/bin/../../lib/gcc/pic32c/8.3.1/../../../../pic32c/lib/thumb/v7e-m+fp/hard\libg-musl.a(__pop_int.o)
 .debug_line    0x00015672      0x272 c:/program files/microchip/xc32/v4.00/bin/bin/../../lib/gcc/pic32c/8.3.1/../../../../pic32c/lib/thumb/v7e-m+fp/hard\libg-musl.a(__pop_ptr.o)
 .debug_line    0x000158e4      0x1dc c:/program files/microchip/xc32/v4.00/bin/bin/../../lib/gcc/pic32c/8.3.1/../../../../pic32c/lib/thumb/v7e-m+fp/hard\libg-musl.a(toupper.o)
 .debug_line    0x00015ac0       0x9c c:/program files/microchip/xc32/v4.00/bin/bin/../../lib/gcc/pic32c/8.3.1/thumb/v7e-m+fp/hard\libgcc.a(_aeabi_uldivmod.o)
 .debug_line    0x00015b5c      0x57e c:/program files/microchip/xc32/v4.00/bin/bin/../../lib/gcc/pic32c/8.3.1/thumb/v7e-m+fp/hard\libgcc.a(_udivmoddi4.o)
 .debug_line    0x000160da       0x9c c:/program files/microchip/xc32/v4.00/bin/bin/../../lib/gcc/pic32c/8.3.1/thumb/v7e-m+fp/hard\libgcc.a(_dvmd_tls.o)
 .debug_line    0x00016176       0x9e c:/program files/microchip/xc32/v4.00/bin/bin/../../lib/gcc/pic32c/8.3.1/../../../../pic32c/lib/thumb/v7e-m+fp/hard\libpic32c.a(close.o)
 .debug_line    0x00016214       0x9e c:/program files/microchip/xc32/v4.00/bin/bin/../../lib/gcc/pic32c/8.3.1/../../../../pic32c/lib/thumb/v7e-m+fp/hard\libpic32c.a(lseek.o)
 .debug_line    0x000162b2       0xb5 c:/program files/microchip/xc32/v4.00/bin/bin/../../lib/gcc/pic32c/8.3.1/../../../../pic32c/lib/thumb/v7e-m+fp/hard\libpic32c.a(sbrk.o)
 .debug_line    0x00016367       0xd0 c:/program files/microchip/xc32/v4.00/bin/bin/../../lib/gcc/pic32c/8.3.1/../../../../pic32c/lib/thumb/v7e-m+fp/hard\libpic32c.a(write.o)

.debug_str      0x00000000      0xba0
 .debug_str     0x00000000        0x0 build/sam_e54_xpro/debug/_ext/544748269/bsp.o
 .debug_str     0x00000000       0x59 build/sam_e54_xpro/debug/_ext/1062319119/drv_memory_nvmctrl.o
 .debug_str     0x00000059      0x14e build/sam_e54_xpro/debug/_ext/1062319119/drv_memory.o
 .debug_str     0x000001a7       0x1e build/sam_e54_xpro/debug/_ext/1062319119/drv_memory_file_system.o
 .debug_str     0x000001c5       0x1e build/sam_e54_xpro/debug/_ext/2056749927/plib_clock.o
 .debug_str     0x000001e3        0x0 build/sam_e54_xpro/debug/_ext/2058899413/plib_evsys.o
 .debug_str     0x000001e3        0x0 build/sam_e54_xpro/debug/_ext/1950920501/plib_mpu.o
 .debug_str     0x000001e3        0x0 build/sam_e54_xpro/debug/_ext/348958103/plib_nvic.o
 .debug_str     0x000001e3       0x1b build/sam_e54_xpro/debug/_ext/1986180951/plib_nvmctrl.o
 .debug_str     0x000001fe        0xb build/sam_e54_xpro/debug/_ext/348904952/plib_port.o
 .debug_str     0x00000209       0x27 build/sam_e54_xpro/debug/_ext/498645085/xc32_monitor.o
 .debug_str     0x00000230       0x80 build/sam_e54_xpro/debug/_ext/1171329604/ff.o
 .debug_str     0x000002b0        0x0 build/sam_e54_xpro/debug/_ext/1171329604/ffunicode.o
 .debug_str     0x000002b0       0xed build/sam_e54_xpro/debug/_ext/656274803/diskio.o
 .debug_str     0x0000039d      0x127 build/sam_e54_xpro/debug/_ext/743848790/sys_fs.o
 .debug_str     0x000004c4       0xd2 build/sam_e54_xpro/debug/_ext/743848790/sys_fs_media_manager.o
 .debug_str     0x00000596       0x96 build/sam_e54_xpro/debug/_ext/743848790/sys_fs_fat_interface.o
 .debug_str     0x0000062c       0xb4 build/sam_e54_xpro/debug/_ext/68098787/initialization.o
 .debug_str     0x000006e0        0x0 build/sam_e54_xpro/debug/_ext/68098787/interrupts.o
 .debug_str     0x000006e0        0x0 build/sam_e54_xpro/debug/_ext/68098787/exceptions.o
 .debug_str     0x000006e0       0x3e build/sam_e54_xpro/debug/_ext/68098787/startup_xc32.o
 .debug_str     0x0000071e       0x28 build/sam_e54_xpro/debug/_ext/68098787/tasks.o
 .debug_str     0x00000746        0x0 build/sam_e54_xpro/debug/_ext/1360937237/nvm_disk_images.o
 .debug_str     0x00000746       0x19 build/sam_e54_xpro/debug/_ext/1360937237/main.o
 .debug_str     0x0000075f       0x5b build/sam_e54_xpro/debug/_ext/1360937237/app.o
 .debug_str     0x000007ba      0x123 build/sam_e54_xpro/debug/_ext/2060180706/plib_sercom2_usart.o
 .debug_str     0x000008dd        0x0 c:/program files/microchip/xc32/v4.00/bin/bin/../../lib/gcc/pic32c/8.3.1/../../../../pic32c/lib/thumb/v7e-m+fp/hard\libpic32c.a(data_init.o)
 .debug_str     0x000008dd        0x0 c:/program files/microchip/xc32/v4.00/bin/bin/../../lib/gcc/pic32c/8.3.1/../../../../pic32c/lib/thumb/v7e-m+fp/hard\libg-musl.a(__libc_start_main.o)
 .debug_str     0x000008dd        0x0 c:/program files/microchip/xc32/v4.00/bin/bin/../../lib/gcc/pic32c/8.3.1/../../../../pic32c/lib/thumb/v7e-m+fp/hard\libg-musl.a(libc.o)
 .debug_str     0x000008dd        0xf c:/program files/microchip/xc32/v4.00/bin/bin/../../lib/gcc/pic32c/8.3.1/../../../../pic32c/lib/thumb/v7e-m+fp/hard\libg-musl.a(stdin.o)
 .debug_str     0x000008ec       0x11 c:/program files/microchip/xc32/v4.00/bin/bin/../../lib/gcc/pic32c/8.3.1/../../../../pic32c/lib/thumb/v7e-m+fp/hard\libg-musl.a(stdout.o)
 .debug_str     0x000008fd        0x9 c:/program files/microchip/xc32/v4.00/bin/bin/../../lib/gcc/pic32c/8.3.1/../../../../pic32c/lib/thumb/v7e-m+fp/hard\libg-musl.a(printf.o)
 .debug_str     0x00000906        0x0 c:/program files/microchip/xc32/v4.00/bin/bin/../../lib/gcc/pic32c/8.3.1/../../../../pic32c/lib/thumb/v7e-m+fp/hard\libg-musl.a(setbuf.o)
 .debug_str     0x00000906        0x0 c:/program files/microchip/xc32/v4.00/bin/bin/../../lib/gcc/pic32c/8.3.1/../../../../pic32c/lib/thumb/v7e-m+fp/hard\libg-musl.a(memcpy.o)
 .debug_str     0x00000906        0x0 c:/program files/microchip/xc32/v4.00/bin/bin/../../lib/gcc/pic32c/8.3.1/../../../../pic32c/lib/thumb/v7e-m+fp/hard\libg-musl.a(memset.o)
 .debug_str     0x00000906        0x0 c:/program files/microchip/xc32/v4.00/bin/bin/../../lib/gcc/pic32c/8.3.1/../../../../pic32c/lib/thumb/v7e-m+fp/hard\libg-musl.a(strlen.o)
 .debug_str     0x00000906        0x0 c:/program files/microchip/xc32/v4.00/bin/bin/../../lib/gcc/pic32c/8.3.1/../../../../pic32c/lib/thumb/v7e-m+fp/hard\libg-musl.a(strcmp.o)
 .debug_str     0x00000906        0x9 c:/program files/microchip/xc32/v4.00/bin/bin/../../lib/gcc/pic32c/8.3.1/../../../../pic32c/lib/thumb/v7e-m+fp/hard\libg-musl.a(strcpy.o)
 .debug_str     0x0000090f        0x0 c:/program files/microchip/xc32/v4.00/bin/bin/../../lib/gcc/pic32c/8.3.1/../../../../pic32c/lib/thumb/v7e-m+fp/hard\libg-musl.a(strncmp.o)
 .debug_str     0x0000090f        0x0 c:/program files/microchip/xc32/v4.00/bin/bin/../../lib/gcc/pic32c/8.3.1/../../../../pic32c/lib/thumb/v7e-m+fp/hard\libg-musl.a(__environ.o)
 .debug_str     0x0000090f        0x0 c:/program files/microchip/xc32/v4.00/bin/bin/../../lib/gcc/pic32c/8.3.1/../../../../pic32c/lib/thumb/v7e-m+fp/hard\libg-musl.a(__stdio_read.o)
 .debug_str     0x0000090f        0x0 c:/program files/microchip/xc32/v4.00/bin/bin/../../lib/gcc/pic32c/8.3.1/../../../../pic32c/lib/thumb/v7e-m+fp/hard\libg-musl.a(__towrite_rw.o)
 .debug_str     0x0000090f       0x10 c:/program files/microchip/xc32/v4.00/bin/bin/../../lib/gcc/pic32c/8.3.1/../../../../pic32c/lib/thumb/v7e-m+fp/hard\libg-musl.a(setvbuf.o)
 .debug_str     0x0000091f       0x1e c:/program files/microchip/xc32/v4.00/bin/bin/../../lib/gcc/pic32c/8.3.1/../../../../pic32c/lib/thumb/v7e-m+fp/hard\libg-musl.a(vfprintf.o)
 .debug_str     0x0000093d        0x0 c:/program files/microchip/xc32/v4.00/bin/bin/../../lib/gcc/pic32c/8.3.1/../../../../pic32c/lib/thumb/v7e-m+fp/hard\libg-musl.a(stpcpy.o)
 .debug_str     0x0000093d        0x0 c:/program files/microchip/xc32/v4.00/bin/bin/../../lib/gcc/pic32c/8.3.1/../../../../pic32c/lib/thumb/v7e-m+fp/hard\libg-musl.a(readv.o)
 .debug_str     0x0000093d       0x13 c:/program files/microchip/xc32/v4.00/bin/bin/../../lib/gcc/pic32c/8.3.1/../../../../pic32c/lib/thumb/v7e-m+fp/hard\libg-musl.a(malloc.o)
 .debug_str     0x00000950        0x0 c:/program files/microchip/xc32/v4.00/bin/bin/../../lib/gcc/pic32c/8.3.1/../../../../pic32c/lib/thumb/v7e-m+fp/hard\libg-musl.a(expand_heap.o)
 .debug_str     0x00000950        0x0 c:/program files/microchip/xc32/v4.00/bin/bin/../../lib/gcc/pic32c/8.3.1/../../../../pic32c/lib/thumb/v7e-m+fp/hard\libg-musl.a(__init_stdio.o)
 .debug_str     0x00000950        0x0 c:/program files/microchip/xc32/v4.00/bin/bin/../../lib/gcc/pic32c/8.3.1/../../../../pic32c/lib/thumb/v7e-m+fp/hard\libg-musl.a(__out.o)
 .debug_str     0x00000950       0x20 c:/program files/microchip/xc32/v4.00/bin/bin/../../lib/gcc/pic32c/8.3.1/../../../../pic32c/lib/thumb/v7e-m+fp/hard\libg-musl.a(__printf_core.o)
 .debug_str     0x00000970       0x11 c:/program files/microchip/xc32/v4.00/bin/bin/../../lib/gcc/pic32c/8.3.1/../../../../pic32c/lib/thumb/v7e-m+fp/hard\libg-musl.a(__stderr.o)
 .debug_str     0x00000981        0x0 c:/program files/microchip/xc32/v4.00/bin/bin/../../lib/gcc/pic32c/8.3.1/../../../../pic32c/lib/thumb/v7e-m+fp/hard\libg-musl.a(__stdio_close.o)
 .debug_str     0x00000981        0xa c:/program files/microchip/xc32/v4.00/bin/bin/../../lib/gcc/pic32c/8.3.1/../../../../pic32c/lib/thumb/v7e-m+fp/hard\libg-musl.a(__stdio_write.o)
 .debug_str     0x0000098b       0x11 c:/program files/microchip/xc32/v4.00/bin/bin/../../lib/gcc/pic32c/8.3.1/../../../../pic32c/lib/thumb/v7e-m+fp/hard\libg-musl.a(__stdout.o)
 .debug_str     0x0000099c        0x0 c:/program files/microchip/xc32/v4.00/bin/bin/../../lib/gcc/pic32c/8.3.1/../../../../pic32c/lib/thumb/v7e-m+fp/hard\libg-musl.a(__towrite.o)
 .debug_str     0x0000099c        0x0 c:/program files/microchip/xc32/v4.00/bin/bin/../../lib/gcc/pic32c/8.3.1/../../../../pic32c/lib/thumb/v7e-m+fp/hard\libg-musl.a(atoi.o)
 .debug_str     0x0000099c        0xe c:/program files/microchip/xc32/v4.00/bin/bin/../../lib/gcc/pic32c/8.3.1/../../../../pic32c/lib/thumb/v7e-m+fp/hard\libg-musl.a(read.o)
 .debug_str     0x000009aa        0x0 c:/program files/microchip/xc32/v4.00/bin/bin/../../lib/gcc/pic32c/8.3.1/../../../../pic32c/lib/thumb/v7e-m+fp/hard\libg-musl.a(writev.o)
 .debug_str     0x000009aa        0x0 c:/program files/microchip/xc32/v4.00/bin/bin/../../lib/gcc/pic32c/8.3.1/../../../../pic32c/lib/thumb/v7e-m+fp/hard\libg-musl.a(tolower.o)
 .debug_str     0x000009aa        0x0 c:/program files/microchip/xc32/v4.00/bin/bin/../../lib/gcc/pic32c/8.3.1/../../../../pic32c/lib/thumb/v7e-m+fp/hard\libg-musl.a(__errno_location.o)
 .debug_str     0x000009aa        0x0 c:/program files/microchip/xc32/v4.00/bin/bin/../../lib/gcc/pic32c/8.3.1/../../../../pic32c/lib/thumb/v7e-m+fp/hard\libg-musl.a(syscall_ret.o)
 .debug_str     0x000009aa        0x0 c:/program files/microchip/xc32/v4.00/bin/bin/../../lib/gcc/pic32c/8.3.1/../../../../pic32c/lib/thumb/v7e-m+fp/hard\libg-musl.a(__fmt_a.o)
 .debug_str     0x000009aa        0x0 c:/program files/microchip/xc32/v4.00/bin/bin/../../lib/gcc/pic32c/8.3.1/../../../../pic32c/lib/thumb/v7e-m+fp/hard\libg-musl.a(__fmt_d.o)
 .debug_str     0x000009aa        0x0 c:/program files/microchip/xc32/v4.00/bin/bin/../../lib/gcc/pic32c/8.3.1/../../../../pic32c/lib/thumb/v7e-m+fp/hard\libg-musl.a(__fmt_fp.o)
 .debug_str     0x000009aa        0x0 c:/program files/microchip/xc32/v4.00/bin/bin/../../lib/gcc/pic32c/8.3.1/../../../../pic32c/lib/thumb/v7e-m+fp/hard\libg-musl.a(__fmt_o.o)
 .debug_str     0x000009aa        0x0 c:/program files/microchip/xc32/v4.00/bin/bin/../../lib/gcc/pic32c/8.3.1/../../../../pic32c/lib/thumb/v7e-m+fp/hard\libg-musl.a(__fmt_s.o)
 .debug_str     0x000009aa        0x6 c:/program files/microchip/xc32/v4.00/bin/bin/../../lib/gcc/pic32c/8.3.1/../../../../pic32c/lib/thumb/v7e-m+fp/hard\libg-musl.a(__fmt_u.o)
 .debug_str     0x000009b0        0x0 c:/program files/microchip/xc32/v4.00/bin/bin/../../lib/gcc/pic32c/8.3.1/../../../../pic32c/lib/thumb/v7e-m+fp/hard\libg-musl.a(__fmt_x.o)
 .debug_str     0x000009b0       0x10 c:/program files/microchip/xc32/v4.00/bin/bin/../../lib/gcc/pic32c/8.3.1/../../../../pic32c/lib/thumb/v7e-m+fp/hard\libg-musl.a(__fwrite.o)
 .debug_str     0x000009c0        0x0 c:/program files/microchip/xc32/v4.00/bin/bin/../../lib/gcc/pic32c/8.3.1/../../../../pic32c/lib/thumb/v7e-m+fp/hard\libg-musl.a(__pop_float.o)
 .debug_str     0x000009c0        0x0 c:/program files/microchip/xc32/v4.00/bin/bin/../../lib/gcc/pic32c/8.3.1/../../../../pic32c/lib/thumb/v7e-m+fp/hard\libg-musl.a(__pop_int.o)
 .debug_str     0x000009c0        0x0 c:/program files/microchip/xc32/v4.00/bin/bin/../../lib/gcc/pic32c/8.3.1/../../../../pic32c/lib/thumb/v7e-m+fp/hard\libg-musl.a(__pop_ptr.o)
 .debug_str     0x000009c0        0x0 c:/program files/microchip/xc32/v4.00/bin/bin/../../lib/gcc/pic32c/8.3.1/../../../../pic32c/lib/thumb/v7e-m+fp/hard\libg-musl.a(toupper.o)
 .debug_str     0x000009c0       0xee c:/program files/microchip/xc32/v4.00/bin/bin/../../lib/gcc/pic32c/8.3.1/thumb/v7e-m+fp/hard\libgcc.a(_aeabi_uldivmod.o)
 .debug_str     0x00000aae        0x0 c:/program files/microchip/xc32/v4.00/bin/bin/../../lib/gcc/pic32c/8.3.1/thumb/v7e-m+fp/hard\libgcc.a(_udivmoddi4.o)
 .debug_str     0x00000aae       0xf2 c:/program files/microchip/xc32/v4.00/bin/bin/../../lib/gcc/pic32c/8.3.1/thumb/v7e-m+fp/hard\libgcc.a(_dvmd_tls.o)
 .debug_str     0x00000ba0        0x0 c:/program files/microchip/xc32/v4.00/bin/bin/../../lib/gcc/pic32c/8.3.1/../../../../pic32c/lib/thumb/v7e-m+fp/hard\libpic32c.a(close.o)
 .debug_str     0x00000ba0        0x0 c:/program files/microchip/xc32/v4.00/bin/bin/../../lib/gcc/pic32c/8.3.1/../../../../pic32c/lib/thumb/v7e-m+fp/hard\libpic32c.a(lseek.o)
 .debug_str     0x00000ba0        0x0 c:/program files/microchip/xc32/v4.00/bin/bin/../../lib/gcc/pic32c/8.3.1/../../../../pic32c/lib/thumb/v7e-m+fp/hard\libpic32c.a(sbrk.o)
 .debug_str     0x00000ba0        0x0 c:/program files/microchip/xc32/v4.00/bin/bin/../../lib/gcc/pic32c/8.3.1/../../../../pic32c/lib/thumb/v7e-m+fp/hard\libpic32c.a(write.o)

.debug_frame    0x00000000     0x2af0
 .debug_frame   0x00000000       0x20 build/sam_e54_xpro/debug/_ext/544748269/bsp.o
 .debug_frame   0x00000020       0xb0 build/sam_e54_xpro/debug/_ext/1062319119/drv_memory_nvmctrl.o
 .debug_frame   0x000000d0      0x2bc build/sam_e54_xpro/debug/_ext/1062319119/drv_memory.o
 .debug_frame   0x0000038c       0x28 build/sam_e54_xpro/debug/_ext/1062319119/drv_memory_file_system.o
 .debug_frame   0x000003b4       0x20 build/sam_e54_xpro/debug/_ext/2056749927/plib_clock.o
 .debug_frame   0x000003d4       0x20 build/sam_e54_xpro/debug/_ext/2058899413/plib_evsys.o
 .debug_frame   0x000003f4       0x20 build/sam_e54_xpro/debug/_ext/1950920501/plib_mpu.o
 .debug_frame   0x00000414       0x50 build/sam_e54_xpro/debug/_ext/348958103/plib_nvic.o
 .debug_frame   0x00000464      0x19c build/sam_e54_xpro/debug/_ext/1986180951/plib_nvmctrl.o
 .debug_frame   0x00000600       0xcc build/sam_e54_xpro/debug/_ext/348904952/plib_port.o
 .debug_frame   0x000006cc       0x50 build/sam_e54_xpro/debug/_ext/498645085/xc32_monitor.o
 .debug_frame   0x0000071c      0x8f0 build/sam_e54_xpro/debug/_ext/1171329604/ff.o
 .debug_frame   0x0000100c       0x5c build/sam_e54_xpro/debug/_ext/1171329604/ffunicode.o
 .debug_frame   0x00001068       0xd0 build/sam_e54_xpro/debug/_ext/656274803/diskio.o
 .debug_frame   0x00001138      0x5a8 build/sam_e54_xpro/debug/_ext/743848790/sys_fs.o
 .debug_frame   0x000016e0      0x1e0 build/sam_e54_xpro/debug/_ext/743848790/sys_fs_media_manager.o
 .debug_frame   0x000018c0      0x36c build/sam_e54_xpro/debug/_ext/743848790/sys_fs_fat_interface.o
 .debug_frame   0x00001c2c       0x28 build/sam_e54_xpro/debug/_ext/68098787/initialization.o
 .debug_frame   0x00001c54       0x20 build/sam_e54_xpro/debug/_ext/68098787/interrupts.o
 .debug_frame   0x00001c74       0x70 build/sam_e54_xpro/debug/_ext/68098787/exceptions.o
 .debug_frame   0x00001ce4       0x38 build/sam_e54_xpro/debug/_ext/68098787/startup_xc32.o
 .debug_frame   0x00001d1c       0x28 build/sam_e54_xpro/debug/_ext/68098787/tasks.o
 .debug_frame   0x00001d44       0x28 build/sam_e54_xpro/debug/_ext/1360937237/main.o
 .debug_frame   0x00001d6c       0x4c build/sam_e54_xpro/debug/_ext/1360937237/app.o
 .debug_frame   0x00001db8      0x15c build/sam_e54_xpro/debug/_ext/2060180706/plib_sercom2_usart.o
 .debug_frame   0x00001f14       0x38 c:/program files/microchip/xc32/v4.00/bin/bin/../../lib/gcc/pic32c/8.3.1/../../../../pic32c/lib/thumb/v7e-m+fp/hard\libpic32c.a(data_init.o)
 .debug_frame   0x00001f4c       0x3c c:/program files/microchip/xc32/v4.00/bin/bin/../../lib/gcc/pic32c/8.3.1/../../../../pic32c/lib/thumb/v7e-m+fp/hard\libg-musl.a(__libc_start_main.o)
 .debug_frame   0x00001f88       0x30 c:/program files/microchip/xc32/v4.00/bin/bin/../../lib/gcc/pic32c/8.3.1/../../../../pic32c/lib/thumb/v7e-m+fp/hard\libg-musl.a(stdin.o)
 .debug_frame   0x00001fb8       0x48 c:/program files/microchip/xc32/v4.00/bin/bin/../../lib/gcc/pic32c/8.3.1/../../../../pic32c/lib/thumb/v7e-m+fp/hard\libg-musl.a(stdout.o)
 .debug_frame   0x00002000       0x40 c:/program files/microchip/xc32/v4.00/bin/bin/../../lib/gcc/pic32c/8.3.1/../../../../pic32c/lib/thumb/v7e-m+fp/hard\libg-musl.a(printf.o)
 .debug_frame   0x00002040       0x20 c:/program files/microchip/xc32/v4.00/bin/bin/../../lib/gcc/pic32c/8.3.1/../../../../pic32c/lib/thumb/v7e-m+fp/hard\libg-musl.a(setbuf.o)
 .debug_frame   0x00002060       0x28 c:/program files/microchip/xc32/v4.00/bin/bin/../../lib/gcc/pic32c/8.3.1/../../../../pic32c/lib/thumb/v7e-m+fp/hard\libg-musl.a(memcpy.o)
 .debug_frame   0x00002088       0x20 c:/program files/microchip/xc32/v4.00/bin/bin/../../lib/gcc/pic32c/8.3.1/../../../../pic32c/lib/thumb/v7e-m+fp/hard\libg-musl.a(memset.o)
 .debug_frame   0x000020a8       0x20 c:/program files/microchip/xc32/v4.00/bin/bin/../../lib/gcc/pic32c/8.3.1/../../../../pic32c/lib/thumb/v7e-m+fp/hard\libg-musl.a(strlen.o)
 .debug_frame   0x000020c8       0x20 c:/program files/microchip/xc32/v4.00/bin/bin/../../lib/gcc/pic32c/8.3.1/../../../../pic32c/lib/thumb/v7e-m+fp/hard\libg-musl.a(strcmp.o)
 .debug_frame   0x000020e8       0x28 c:/program files/microchip/xc32/v4.00/bin/bin/../../lib/gcc/pic32c/8.3.1/../../../../pic32c/lib/thumb/v7e-m+fp/hard\libg-musl.a(strcpy.o)
 .debug_frame   0x00002110       0x28 c:/program files/microchip/xc32/v4.00/bin/bin/../../lib/gcc/pic32c/8.3.1/../../../../pic32c/lib/thumb/v7e-m+fp/hard\libg-musl.a(strncmp.o)
 .debug_frame   0x00002138       0x30 c:/program files/microchip/xc32/v4.00/bin/bin/../../lib/gcc/pic32c/8.3.1/../../../../pic32c/lib/thumb/v7e-m+fp/hard\libg-musl.a(__stdio_read.o)
 .debug_frame   0x00002168       0x20 c:/program files/microchip/xc32/v4.00/bin/bin/../../lib/gcc/pic32c/8.3.1/../../../../pic32c/lib/thumb/v7e-m+fp/hard\libg-musl.a(__towrite_rw.o)
 .debug_frame   0x00002188       0x3c c:/program files/microchip/xc32/v4.00/bin/bin/../../lib/gcc/pic32c/8.3.1/../../../../pic32c/lib/thumb/v7e-m+fp/hard\libg-musl.a(setvbuf.o)
 .debug_frame   0x000021c4       0x3c c:/program files/microchip/xc32/v4.00/bin/bin/../../lib/gcc/pic32c/8.3.1/../../../../pic32c/lib/thumb/v7e-m+fp/hard\libg-musl.a(vfprintf.o)
 .debug_frame   0x00002200       0x20 c:/program files/microchip/xc32/v4.00/bin/bin/../../lib/gcc/pic32c/8.3.1/../../../../pic32c/lib/thumb/v7e-m+fp/hard\libg-musl.a(stpcpy.o)
 .debug_frame   0x00002220       0x30 c:/program files/microchip/xc32/v4.00/bin/bin/../../lib/gcc/pic32c/8.3.1/../../../../pic32c/lib/thumb/v7e-m+fp/hard\libg-musl.a(readv.o)
 .debug_frame   0x00002250      0x150 c:/program files/microchip/xc32/v4.00/bin/bin/../../lib/gcc/pic32c/8.3.1/../../../../pic32c/lib/thumb/v7e-m+fp/hard\libg-musl.a(malloc.o)
 .debug_frame   0x000023a0       0x28 c:/program files/microchip/xc32/v4.00/bin/bin/../../lib/gcc/pic32c/8.3.1/../../../../pic32c/lib/thumb/v7e-m+fp/hard\libg-musl.a(expand_heap.o)
 .debug_frame   0x000023c8       0x38 c:/program files/microchip/xc32/v4.00/bin/bin/../../lib/gcc/pic32c/8.3.1/../../../../pic32c/lib/thumb/v7e-m+fp/hard\libg-musl.a(__init_stdio.o)
 .debug_frame   0x00002400       0x3c c:/program files/microchip/xc32/v4.00/bin/bin/../../lib/gcc/pic32c/8.3.1/../../../../pic32c/lib/thumb/v7e-m+fp/hard\libg-musl.a(__out.o)
 .debug_frame   0x0000243c       0xd8 c:/program files/microchip/xc32/v4.00/bin/bin/../../lib/gcc/pic32c/8.3.1/../../../../pic32c/lib/thumb/v7e-m+fp/hard\libg-musl.a(__printf_core.o)
 .debug_frame   0x00002514       0x40 c:/program files/microchip/xc32/v4.00/bin/bin/../../lib/gcc/pic32c/8.3.1/../../../../pic32c/lib/thumb/v7e-m+fp/hard\libg-musl.a(__stderr.o)
 .debug_frame   0x00002554       0x64 c:/program files/microchip/xc32/v4.00/bin/bin/../../lib/gcc/pic32c/8.3.1/../../../../pic32c/lib/thumb/v7e-m+fp/hard\libg-musl.a(__stdio_close.o)
 .debug_frame   0x000025b8       0x58 c:/program files/microchip/xc32/v4.00/bin/bin/../../lib/gcc/pic32c/8.3.1/../../../../pic32c/lib/thumb/v7e-m+fp/hard\libg-musl.a(__stdio_write.o)
 .debug_frame   0x00002610       0x40 c:/program files/microchip/xc32/v4.00/bin/bin/../../lib/gcc/pic32c/8.3.1/../../../../pic32c/lib/thumb/v7e-m+fp/hard\libg-musl.a(__stdout.o)
 .debug_frame   0x00002650       0x38 c:/program files/microchip/xc32/v4.00/bin/bin/../../lib/gcc/pic32c/8.3.1/../../../../pic32c/lib/thumb/v7e-m+fp/hard\libg-musl.a(__towrite.o)
 .debug_frame   0x00002688       0x28 c:/program files/microchip/xc32/v4.00/bin/bin/../../lib/gcc/pic32c/8.3.1/../../../../pic32c/lib/thumb/v7e-m+fp/hard\libg-musl.a(atoi.o)
 .debug_frame   0x000026b0       0x20 c:/program files/microchip/xc32/v4.00/bin/bin/../../lib/gcc/pic32c/8.3.1/../../../../pic32c/lib/thumb/v7e-m+fp/hard\libg-musl.a(read.o)
 .debug_frame   0x000026d0       0x30 c:/program files/microchip/xc32/v4.00/bin/bin/../../lib/gcc/pic32c/8.3.1/../../../../pic32c/lib/thumb/v7e-m+fp/hard\libg-musl.a(writev.o)
 .debug_frame   0x00002700       0x30 c:/program files/microchip/xc32/v4.00/bin/bin/../../lib/gcc/pic32c/8.3.1/../../../../pic32c/lib/thumb/v7e-m+fp/hard\libg-musl.a(tolower.o)
 .debug_frame   0x00002730       0x20 c:/program files/microchip/xc32/v4.00/bin/bin/../../lib/gcc/pic32c/8.3.1/../../../../pic32c/lib/thumb/v7e-m+fp/hard\libg-musl.a(syscall_ret.o)
 .debug_frame   0x00002750       0x40 c:/program files/microchip/xc32/v4.00/bin/bin/../../lib/gcc/pic32c/8.3.1/../../../../pic32c/lib/thumb/v7e-m+fp/hard\libg-musl.a(__fmt_a.o)
 .debug_frame   0x00002790       0x3c c:/program files/microchip/xc32/v4.00/bin/bin/../../lib/gcc/pic32c/8.3.1/../../../../pic32c/lib/thumb/v7e-m+fp/hard\libg-musl.a(__fmt_d.o)
 .debug_frame   0x000027cc       0x50 c:/program files/microchip/xc32/v4.00/bin/bin/../../lib/gcc/pic32c/8.3.1/../../../../pic32c/lib/thumb/v7e-m+fp/hard\libg-musl.a(__fmt_fp.o)
 .debug_frame   0x0000281c       0x34 c:/program files/microchip/xc32/v4.00/bin/bin/../../lib/gcc/pic32c/8.3.1/../../../../pic32c/lib/thumb/v7e-m+fp/hard\libg-musl.a(__fmt_o.o)
 .debug_frame   0x00002850       0x34 c:/program files/microchip/xc32/v4.00/bin/bin/../../lib/gcc/pic32c/8.3.1/../../../../pic32c/lib/thumb/v7e-m+fp/hard\libg-musl.a(__fmt_s.o)
 .debug_frame   0x00002884       0x5c c:/program files/microchip/xc32/v4.00/bin/bin/../../lib/gcc/pic32c/8.3.1/../../../../pic32c/lib/thumb/v7e-m+fp/hard\libg-musl.a(__fmt_u.o)
 .debug_frame   0x000028e0       0x40 c:/program files/microchip/xc32/v4.00/bin/bin/../../lib/gcc/pic32c/8.3.1/../../../../pic32c/lib/thumb/v7e-m+fp/hard\libg-musl.a(__fmt_x.o)
 .debug_frame   0x00002920       0x40 c:/program files/microchip/xc32/v4.00/bin/bin/../../lib/gcc/pic32c/8.3.1/../../../../pic32c/lib/thumb/v7e-m+fp/hard\libg-musl.a(__fwrite.o)
 .debug_frame   0x00002960       0x20 c:/program files/microchip/xc32/v4.00/bin/bin/../../lib/gcc/pic32c/8.3.1/../../../../pic32c/lib/thumb/v7e-m+fp/hard\libg-musl.a(__pop_float.o)
 .debug_frame   0x00002980       0x2c c:/program files/microchip/xc32/v4.00/bin/bin/../../lib/gcc/pic32c/8.3.1/../../../../pic32c/lib/thumb/v7e-m+fp/hard\libg-musl.a(__pop_int.o)
 .debug_frame   0x000029ac       0x28 c:/program files/microchip/xc32/v4.00/bin/bin/../../lib/gcc/pic32c/8.3.1/../../../../pic32c/lib/thumb/v7e-m+fp/hard\libg-musl.a(__pop_ptr.o)
 .debug_frame   0x000029d4       0x30 c:/program files/microchip/xc32/v4.00/bin/bin/../../lib/gcc/pic32c/8.3.1/../../../../pic32c/lib/thumb/v7e-m+fp/hard\libg-musl.a(toupper.o)
 .debug_frame   0x00002a04       0x2c c:/program files/microchip/xc32/v4.00/bin/bin/../../lib/gcc/pic32c/8.3.1/thumb/v7e-m+fp/hard\libgcc.a(_aeabi_uldivmod.o)
 .debug_frame   0x00002a30       0x34 c:/program files/microchip/xc32/v4.00/bin/bin/../../lib/gcc/pic32c/8.3.1/thumb/v7e-m+fp/hard\libgcc.a(_udivmoddi4.o)
 .debug_frame   0x00002a64       0x20 c:/program files/microchip/xc32/v4.00/bin/bin/../../lib/gcc/pic32c/8.3.1/../../../../pic32c/lib/thumb/v7e-m+fp/hard\libpic32c.a(close.o)
 .debug_frame   0x00002a84       0x20 c:/program files/microchip/xc32/v4.00/bin/bin/../../lib/gcc/pic32c/8.3.1/../../../../pic32c/lib/thumb/v7e-m+fp/hard\libpic32c.a(lseek.o)
 .debug_frame   0x00002aa4       0x20 c:/program files/microchip/xc32/v4.00/bin/bin/../../lib/gcc/pic32c/8.3.1/../../../../pic32c/lib/thumb/v7e-m+fp/hard\libpic32c.a(sbrk.o)
 .debug_frame   0x00002ac4       0x2c c:/program files/microchip/xc32/v4.00/bin/bin/../../lib/gcc/pic32c/8.3.1/../../../../pic32c/lib/thumb/v7e-m+fp/hard\libpic32c.a(write.o)

.debug_loc      0x00000000    0x1cd74
 .debug_loc     0x00000000      0x263 build/sam_e54_xpro/debug/_ext/1062319119/drv_memory_nvmctrl.o
 .debug_loc     0x00000263     0x20d7 build/sam_e54_xpro/debug/_ext/1062319119/drv_memory.o
 .debug_loc     0x0000233a       0x6a build/sam_e54_xpro/debug/_ext/1062319119/drv_memory_file_system.o
 .debug_loc     0x000023a4       0x73 build/sam_e54_xpro/debug/_ext/348958103/plib_nvic.o
 .debug_loc     0x00002417      0x5a2 build/sam_e54_xpro/debug/_ext/1986180951/plib_nvmctrl.o
 .debug_loc     0x000029b9      0x1bc build/sam_e54_xpro/debug/_ext/348904952/plib_port.o
 .debug_loc     0x00002b75       0xf0 build/sam_e54_xpro/debug/_ext/498645085/xc32_monitor.o
 .debug_loc     0x00002c65     0xa363 build/sam_e54_xpro/debug/_ext/1171329604/ff.o
 .debug_loc     0x0000cfc8      0x575 build/sam_e54_xpro/debug/_ext/1171329604/ffunicode.o
 .debug_loc     0x0000d53d      0x58b build/sam_e54_xpro/debug/_ext/656274803/diskio.o
 .debug_loc     0x0000dac8     0x5a22 build/sam_e54_xpro/debug/_ext/743848790/sys_fs.o
 .debug_loc     0x000134ea     0x1696 build/sam_e54_xpro/debug/_ext/743848790/sys_fs_media_manager.o
 .debug_loc     0x00014b80     0x1c60 build/sam_e54_xpro/debug/_ext/743848790/sys_fs_fat_interface.o
 .debug_loc     0x000167e0       0x45 build/sam_e54_xpro/debug/_ext/68098787/initialization.o
 .debug_loc     0x00016825       0x60 build/sam_e54_xpro/debug/_ext/68098787/startup_xc32.o
 .debug_loc     0x00016885       0x20 build/sam_e54_xpro/debug/_ext/68098787/tasks.o
 .debug_loc     0x000168a5       0x20 build/sam_e54_xpro/debug/_ext/1360937237/main.o
 .debug_loc     0x000168c5       0x66 build/sam_e54_xpro/debug/_ext/1360937237/app.o
 .debug_loc     0x0001692b      0x7d8 build/sam_e54_xpro/debug/_ext/2060180706/plib_sercom2_usart.o
 .debug_loc     0x00017103       0x14 c:/program files/microchip/xc32/v4.00/bin/bin/../../lib/gcc/pic32c/8.3.1/../../../../pic32c/lib/thumb/v7e-m+fp/hard\libpic32c.a(data_init.o)
 .debug_loc     0x00017117       0x51 c:/program files/microchip/xc32/v4.00/bin/bin/../../lib/gcc/pic32c/8.3.1/../../../../pic32c/lib/thumb/v7e-m+fp/hard\libg-musl.a(__libc_start_main.o)
 .debug_loc     0x00017168       0x25 c:/program files/microchip/xc32/v4.00/bin/bin/../../lib/gcc/pic32c/8.3.1/../../../../pic32c/lib/thumb/v7e-m+fp/hard\libg-musl.a(stdin.o)
 .debug_loc     0x0001718d       0x20 c:/program files/microchip/xc32/v4.00/bin/bin/../../lib/gcc/pic32c/8.3.1/../../../../pic32c/lib/thumb/v7e-m+fp/hard\libg-musl.a(stdout.o)
 .debug_loc     0x000171ad       0x65 c:/program files/microchip/xc32/v4.00/bin/bin/../../lib/gcc/pic32c/8.3.1/../../../../pic32c/lib/thumb/v7e-m+fp/hard\libg-musl.a(printf.o)
 .debug_loc     0x00017212       0x4a c:/program files/microchip/xc32/v4.00/bin/bin/../../lib/gcc/pic32c/8.3.1/../../../../pic32c/lib/thumb/v7e-m+fp/hard\libg-musl.a(setbuf.o)
 .debug_loc     0x0001725c       0xba c:/program files/microchip/xc32/v4.00/bin/bin/../../lib/gcc/pic32c/8.3.1/../../../../pic32c/lib/thumb/v7e-m+fp/hard\libg-musl.a(memcpy.o)
 .debug_loc     0x00017316       0x56 c:/program files/microchip/xc32/v4.00/bin/bin/../../lib/gcc/pic32c/8.3.1/../../../../pic32c/lib/thumb/v7e-m+fp/hard\libg-musl.a(memset.o)
 .debug_loc     0x0001736c       0x47 c:/program files/microchip/xc32/v4.00/bin/bin/../../lib/gcc/pic32c/8.3.1/../../../../pic32c/lib/thumb/v7e-m+fp/hard\libg-musl.a(strlen.o)
 .debug_loc     0x000173b3       0x76 c:/program files/microchip/xc32/v4.00/bin/bin/../../lib/gcc/pic32c/8.3.1/../../../../pic32c/lib/thumb/v7e-m+fp/hard\libg-musl.a(strcmp.o)
 .debug_loc     0x00017429       0x67 c:/program files/microchip/xc32/v4.00/bin/bin/../../lib/gcc/pic32c/8.3.1/../../../../pic32c/lib/thumb/v7e-m+fp/hard\libg-musl.a(strcpy.o)
 .debug_loc     0x00017490      0x1a6 c:/program files/microchip/xc32/v4.00/bin/bin/../../lib/gcc/pic32c/8.3.1/../../../../pic32c/lib/thumb/v7e-m+fp/hard\libg-musl.a(strncmp.o)
 .debug_loc     0x00017636      0x103 c:/program files/microchip/xc32/v4.00/bin/bin/../../lib/gcc/pic32c/8.3.1/../../../../pic32c/lib/thumb/v7e-m+fp/hard\libg-musl.a(__stdio_read.o)
 .debug_loc     0x00017739       0x25 c:/program files/microchip/xc32/v4.00/bin/bin/../../lib/gcc/pic32c/8.3.1/../../../../pic32c/lib/thumb/v7e-m+fp/hard\libg-musl.a(__towrite_rw.o)
 .debug_loc     0x0001775e       0xd8 c:/program files/microchip/xc32/v4.00/bin/bin/../../lib/gcc/pic32c/8.3.1/../../../../pic32c/lib/thumb/v7e-m+fp/hard\libg-musl.a(setvbuf.o)
 .debug_loc     0x00017836       0x88 c:/program files/microchip/xc32/v4.00/bin/bin/../../lib/gcc/pic32c/8.3.1/../../../../pic32c/lib/thumb/v7e-m+fp/hard\libg-musl.a(vfprintf.o)
 .debug_loc     0x000178be       0x60 c:/program files/microchip/xc32/v4.00/bin/bin/../../lib/gcc/pic32c/8.3.1/../../../../pic32c/lib/thumb/v7e-m+fp/hard\libg-musl.a(stpcpy.o)
 .debug_loc     0x0001791e       0xeb c:/program files/microchip/xc32/v4.00/bin/bin/../../lib/gcc/pic32c/8.3.1/../../../../pic32c/lib/thumb/v7e-m+fp/hard\libg-musl.a(readv.o)
 .debug_loc     0x00017a09      0xccc c:/program files/microchip/xc32/v4.00/bin/bin/../../lib/gcc/pic32c/8.3.1/../../../../pic32c/lib/thumb/v7e-m+fp/hard\libg-musl.a(malloc.o)
 .debug_loc     0x000186d5       0x7c c:/program files/microchip/xc32/v4.00/bin/bin/../../lib/gcc/pic32c/8.3.1/../../../../pic32c/lib/thumb/v7e-m+fp/hard\libg-musl.a(expand_heap.o)
 .debug_loc     0x00018751       0x20 c:/program files/microchip/xc32/v4.00/bin/bin/../../lib/gcc/pic32c/8.3.1/../../../../pic32c/lib/thumb/v7e-m+fp/hard\libg-musl.a(__init_stdio.o)
 .debug_loc     0x00018771      0x1a8 c:/program files/microchip/xc32/v4.00/bin/bin/../../lib/gcc/pic32c/8.3.1/../../../../pic32c/lib/thumb/v7e-m+fp/hard\libg-musl.a(__out.o)
 .debug_loc     0x00018919      0x638 c:/program files/microchip/xc32/v4.00/bin/bin/../../lib/gcc/pic32c/8.3.1/../../../../pic32c/lib/thumb/v7e-m+fp/hard\libg-musl.a(__printf_core.o)
 .debug_loc     0x00018f51       0x25 c:/program files/microchip/xc32/v4.00/bin/bin/../../lib/gcc/pic32c/8.3.1/../../../../pic32c/lib/thumb/v7e-m+fp/hard\libg-musl.a(__stderr.o)
 .debug_loc     0x00018f76      0x22c c:/program files/microchip/xc32/v4.00/bin/bin/../../lib/gcc/pic32c/8.3.1/../../../../pic32c/lib/thumb/v7e-m+fp/hard\libg-musl.a(__stdio_close.o)
 .debug_loc     0x000191a2      0x2f1 c:/program files/microchip/xc32/v4.00/bin/bin/../../lib/gcc/pic32c/8.3.1/../../../../pic32c/lib/thumb/v7e-m+fp/hard\libg-musl.a(__stdio_write.o)
 .debug_loc     0x00019493       0x25 c:/program files/microchip/xc32/v4.00/bin/bin/../../lib/gcc/pic32c/8.3.1/../../../../pic32c/lib/thumb/v7e-m+fp/hard\libg-musl.a(__stdout.o)
 .debug_loc     0x000194b8       0x7c c:/program files/microchip/xc32/v4.00/bin/bin/../../lib/gcc/pic32c/8.3.1/../../../../pic32c/lib/thumb/v7e-m+fp/hard\libg-musl.a(__towrite.o)
 .debug_loc     0x00019534       0xd8 c:/program files/microchip/xc32/v4.00/bin/bin/../../lib/gcc/pic32c/8.3.1/../../../../pic32c/lib/thumb/v7e-m+fp/hard\libg-musl.a(atoi.o)
 .debug_loc     0x0001960c       0x6f c:/program files/microchip/xc32/v4.00/bin/bin/../../lib/gcc/pic32c/8.3.1/../../../../pic32c/lib/thumb/v7e-m+fp/hard\libg-musl.a(read.o)
 .debug_loc     0x0001967b       0xeb c:/program files/microchip/xc32/v4.00/bin/bin/../../lib/gcc/pic32c/8.3.1/../../../../pic32c/lib/thumb/v7e-m+fp/hard\libg-musl.a(writev.o)
 .debug_loc     0x00019766       0x4a c:/program files/microchip/xc32/v4.00/bin/bin/../../lib/gcc/pic32c/8.3.1/../../../../pic32c/lib/thumb/v7e-m+fp/hard\libg-musl.a(tolower.o)
 .debug_loc     0x000197b0       0x25 c:/program files/microchip/xc32/v4.00/bin/bin/../../lib/gcc/pic32c/8.3.1/../../../../pic32c/lib/thumb/v7e-m+fp/hard\libg-musl.a(syscall_ret.o)
 .debug_loc     0x000197d5      0xac1 c:/program files/microchip/xc32/v4.00/bin/bin/../../lib/gcc/pic32c/8.3.1/../../../../pic32c/lib/thumb/v7e-m+fp/hard\libg-musl.a(__fmt_a.o)
 .debug_loc     0x0001a296      0x1ef c:/program files/microchip/xc32/v4.00/bin/bin/../../lib/gcc/pic32c/8.3.1/../../../../pic32c/lib/thumb/v7e-m+fp/hard\libg-musl.a(__fmt_d.o)
 .debug_loc     0x0001a485      0x9e3 c:/program files/microchip/xc32/v4.00/bin/bin/../../lib/gcc/pic32c/8.3.1/../../../../pic32c/lib/thumb/v7e-m+fp/hard\libg-musl.a(__fmt_fp.o)
 .debug_loc     0x0001ae68      0x10a c:/program files/microchip/xc32/v4.00/bin/bin/../../lib/gcc/pic32c/8.3.1/../../../../pic32c/lib/thumb/v7e-m+fp/hard\libg-musl.a(__fmt_o.o)
 .debug_loc     0x0001af72      0x157 c:/program files/microchip/xc32/v4.00/bin/bin/../../lib/gcc/pic32c/8.3.1/../../../../pic32c/lib/thumb/v7e-m+fp/hard\libg-musl.a(__fmt_s.o)
 .debug_loc     0x0001b0c9      0x2a2 c:/program files/microchip/xc32/v4.00/bin/bin/../../lib/gcc/pic32c/8.3.1/../../../../pic32c/lib/thumb/v7e-m+fp/hard\libg-musl.a(__fmt_u.o)
 .debug_loc     0x0001b36b      0x2a8 c:/program files/microchip/xc32/v4.00/bin/bin/../../lib/gcc/pic32c/8.3.1/../../../../pic32c/lib/thumb/v7e-m+fp/hard\libg-musl.a(__fmt_x.o)
 .debug_loc     0x0001b613      0x12f c:/program files/microchip/xc32/v4.00/bin/bin/../../lib/gcc/pic32c/8.3.1/../../../../pic32c/lib/thumb/v7e-m+fp/hard\libg-musl.a(__fwrite.o)
 .debug_loc     0x0001b742       0xa6 c:/program files/microchip/xc32/v4.00/bin/bin/../../lib/gcc/pic32c/8.3.1/../../../../pic32c/lib/thumb/v7e-m+fp/hard\libg-musl.a(__pop_float.o)
 .debug_loc     0x0001b7e8      0x312 c:/program files/microchip/xc32/v4.00/bin/bin/../../lib/gcc/pic32c/8.3.1/../../../../pic32c/lib/thumb/v7e-m+fp/hard\libg-musl.a(__pop_int.o)
 .debug_loc     0x0001bafa      0x1db c:/program files/microchip/xc32/v4.00/bin/bin/../../lib/gcc/pic32c/8.3.1/../../../../pic32c/lib/thumb/v7e-m+fp/hard\libg-musl.a(__pop_ptr.o)
 .debug_loc     0x0001bcd5       0x4a c:/program files/microchip/xc32/v4.00/bin/bin/../../lib/gcc/pic32c/8.3.1/../../../../pic32c/lib/thumb/v7e-m+fp/hard\libg-musl.a(toupper.o)
 .debug_loc     0x0001bd1f     0x1041 c:/program files/microchip/xc32/v4.00/bin/bin/../../lib/gcc/pic32c/8.3.1/thumb/v7e-m+fp/hard\libgcc.a(_udivmoddi4.o)
 .debug_loc     0x0001cd60       0x14 c:/program files/microchip/xc32/v4.00/bin/bin/../../lib/gcc/pic32c/8.3.1/../../../../pic32c/lib/thumb/v7e-m+fp/hard\libpic32c.a(write.o)

.note.GNU-stack
                0x00000000        0x0
 .note.GNU-stack
                0x00000000        0x0 c:/program files/microchip/xc32/v4.00/bin/bin/../../lib/gcc/pic32c/8.3.1/../../../../pic32c/lib/thumb/v7e-m+fp/hard\libg-musl.a(__libc_start_main.o)
 .note.GNU-stack
                0x00000000        0x0 c:/program files/microchip/xc32/v4.00/bin/bin/../../lib/gcc/pic32c/8.3.1/../../../../pic32c/lib/thumb/v7e-m+fp/hard\libg-musl.a(libc.o)
 .note.GNU-stack
                0x00000000        0x0 c:/program files/microchip/xc32/v4.00/bin/bin/../../lib/gcc/pic32c/8.3.1/../../../../pic32c/lib/thumb/v7e-m+fp/hard\libg-musl.a(stdin.o)
 .note.GNU-stack
                0x00000000        0x0 c:/program files/microchip/xc32/v4.00/bin/bin/../../lib/gcc/pic32c/8.3.1/../../../../pic32c/lib/thumb/v7e-m+fp/hard\libg-musl.a(stdout.o)
 .note.GNU-stack
                0x00000000        0x0 c:/program files/microchip/xc32/v4.00/bin/bin/../../lib/gcc/pic32c/8.3.1/../../../../pic32c/lib/thumb/v7e-m+fp/hard\libg-musl.a(printf.o)
 .note.GNU-stack
                0x00000000        0x0 c:/program files/microchip/xc32/v4.00/bin/bin/../../lib/gcc/pic32c/8.3.1/../../../../pic32c/lib/thumb/v7e-m+fp/hard\libg-musl.a(setbuf.o)
 .note.GNU-stack
                0x00000000        0x0 c:/program files/microchip/xc32/v4.00/bin/bin/../../lib/gcc/pic32c/8.3.1/../../../../pic32c/lib/thumb/v7e-m+fp/hard\libg-musl.a(memcpy.o)
 .note.GNU-stack
                0x00000000        0x0 c:/program files/microchip/xc32/v4.00/bin/bin/../../lib/gcc/pic32c/8.3.1/../../../../pic32c/lib/thumb/v7e-m+fp/hard\libg-musl.a(memset.o)
 .note.GNU-stack
                0x00000000        0x0 c:/program files/microchip/xc32/v4.00/bin/bin/../../lib/gcc/pic32c/8.3.1/../../../../pic32c/lib/thumb/v7e-m+fp/hard\libg-musl.a(strlen.o)
 .note.GNU-stack
                0x00000000        0x0 c:/program files/microchip/xc32/v4.00/bin/bin/../../lib/gcc/pic32c/8.3.1/../../../../pic32c/lib/thumb/v7e-m+fp/hard\libg-musl.a(strcmp.o)
 .note.GNU-stack
                0x00000000        0x0 c:/program files/microchip/xc32/v4.00/bin/bin/../../lib/gcc/pic32c/8.3.1/../../../../pic32c/lib/thumb/v7e-m+fp/hard\libg-musl.a(strcpy.o)
 .note.GNU-stack
                0x00000000        0x0 c:/program files/microchip/xc32/v4.00/bin/bin/../../lib/gcc/pic32c/8.3.1/../../../../pic32c/lib/thumb/v7e-m+fp/hard\libg-musl.a(strncmp.o)
 .note.GNU-stack
                0x00000000        0x0 c:/program files/microchip/xc32/v4.00/bin/bin/../../lib/gcc/pic32c/8.3.1/../../../../pic32c/lib/thumb/v7e-m+fp/hard\libg-musl.a(__environ.o)
 .note.GNU-stack
                0x00000000        0x0 c:/program files/microchip/xc32/v4.00/bin/bin/../../lib/gcc/pic32c/8.3.1/../../../../pic32c/lib/thumb/v7e-m+fp/hard\libg-musl.a(__stdio_read.o)
 .note.GNU-stack
                0x00000000        0x0 c:/program files/microchip/xc32/v4.00/bin/bin/../../lib/gcc/pic32c/8.3.1/../../../../pic32c/lib/thumb/v7e-m+fp/hard\libg-musl.a(__towrite_rw.o)
 .note.GNU-stack
                0x00000000        0x0 c:/program files/microchip/xc32/v4.00/bin/bin/../../lib/gcc/pic32c/8.3.1/../../../../pic32c/lib/thumb/v7e-m+fp/hard\libg-musl.a(setvbuf.o)
 .note.GNU-stack
                0x00000000        0x0 c:/program files/microchip/xc32/v4.00/bin/bin/../../lib/gcc/pic32c/8.3.1/../../../../pic32c/lib/thumb/v7e-m+fp/hard\libg-musl.a(vfprintf.o)
 .note.GNU-stack
                0x00000000        0x0 c:/program files/microchip/xc32/v4.00/bin/bin/../../lib/gcc/pic32c/8.3.1/../../../../pic32c/lib/thumb/v7e-m+fp/hard\libg-musl.a(stpcpy.o)
 .note.GNU-stack
                0x00000000        0x0 c:/program files/microchip/xc32/v4.00/bin/bin/../../lib/gcc/pic32c/8.3.1/../../../../pic32c/lib/thumb/v7e-m+fp/hard\libg-musl.a(readv.o)
 .note.GNU-stack
                0x00000000        0x0 c:/program files/microchip/xc32/v4.00/bin/bin/../../lib/gcc/pic32c/8.3.1/../../../../pic32c/lib/thumb/v7e-m+fp/hard\libg-musl.a(malloc.o)
 .note.GNU-stack
                0x00000000        0x0 c:/program files/microchip/xc32/v4.00/bin/bin/../../lib/gcc/pic32c/8.3.1/../../../../pic32c/lib/thumb/v7e-m+fp/hard\libg-musl.a(expand_heap.o)
 .note.GNU-stack
                0x00000000        0x0 c:/program files/microchip/xc32/v4.00/bin/bin/../../lib/gcc/pic32c/8.3.1/../../../../pic32c/lib/thumb/v7e-m+fp/hard\libg-musl.a(__init_stdio.o)
 .note.GNU-stack
                0x00000000        0x0 c:/program files/microchip/xc32/v4.00/bin/bin/../../lib/gcc/pic32c/8.3.1/../../../../pic32c/lib/thumb/v7e-m+fp/hard\libg-musl.a(__out.o)
 .note.GNU-stack
                0x00000000        0x0 c:/program files/microchip/xc32/v4.00/bin/bin/../../lib/gcc/pic32c/8.3.1/../../../../pic32c/lib/thumb/v7e-m+fp/hard\libg-musl.a(__printf_core.o)
 .note.GNU-stack
                0x00000000        0x0 c:/program files/microchip/xc32/v4.00/bin/bin/../../lib/gcc/pic32c/8.3.1/../../../../pic32c/lib/thumb/v7e-m+fp/hard\libg-musl.a(__stderr.o)
 .note.GNU-stack
                0x00000000        0x0 c:/program files/microchip/xc32/v4.00/bin/bin/../../lib/gcc/pic32c/8.3.1/../../../../pic32c/lib/thumb/v7e-m+fp/hard\libg-musl.a(__stdio_close.o)
 .note.GNU-stack
                0x00000000        0x0 c:/program files/microchip/xc32/v4.00/bin/bin/../../lib/gcc/pic32c/8.3.1/../../../../pic32c/lib/thumb/v7e-m+fp/hard\libg-musl.a(__stdio_write.o)
 .note.GNU-stack
                0x00000000        0x0 c:/program files/microchip/xc32/v4.00/bin/bin/../../lib/gcc/pic32c/8.3.1/../../../../pic32c/lib/thumb/v7e-m+fp/hard\libg-musl.a(__stdout.o)
 .note.GNU-stack
                0x00000000        0x0 c:/program files/microchip/xc32/v4.00/bin/bin/../../lib/gcc/pic32c/8.3.1/../../../../pic32c/lib/thumb/v7e-m+fp/hard\libg-musl.a(__towrite.o)
 .note.GNU-stack
                0x00000000        0x0 c:/program files/microchip/xc32/v4.00/bin/bin/../../lib/gcc/pic32c/8.3.1/../../../../pic32c/lib/thumb/v7e-m+fp/hard\libg-musl.a(atoi.o)
 .note.GNU-stack
                0x00000000        0x0 c:/program files/microchip/xc32/v4.00/bin/bin/../../lib/gcc/pic32c/8.3.1/../../../../pic32c/lib/thumb/v7e-m+fp/hard\libg-musl.a(read.o)
 .note.GNU-stack
                0x00000000        0x0 c:/program files/microchip/xc32/v4.00/bin/bin/../../lib/gcc/pic32c/8.3.1/../../../../pic32c/lib/thumb/v7e-m+fp/hard\libg-musl.a(writev.o)
 .note.GNU-stack
                0x00000000        0x0 c:/program files/microchip/xc32/v4.00/bin/bin/../../lib/gcc/pic32c/8.3.1/../../../../pic32c/lib/thumb/v7e-m+fp/hard\libg-musl.a(tolower.o)
 .note.GNU-stack
                0x00000000        0x0 c:/program files/microchip/xc32/v4.00/bin/bin/../../lib/gcc/pic32c/8.3.1/../../../../pic32c/lib/thumb/v7e-m+fp/hard\libg-musl.a(__errno_location.o)
 .note.GNU-stack
                0x00000000        0x0 c:/program files/microchip/xc32/v4.00/bin/bin/../../lib/gcc/pic32c/8.3.1/../../../../pic32c/lib/thumb/v7e-m+fp/hard\libg-musl.a(syscall_ret.o)
 .note.GNU-stack
                0x00000000        0x0 c:/program files/microchip/xc32/v4.00/bin/bin/../../lib/gcc/pic32c/8.3.1/../../../../pic32c/lib/thumb/v7e-m+fp/hard\libg-musl.a(__fmt_a.o)
 .note.GNU-stack
                0x00000000        0x0 c:/program files/microchip/xc32/v4.00/bin/bin/../../lib/gcc/pic32c/8.3.1/../../../../pic32c/lib/thumb/v7e-m+fp/hard\libg-musl.a(__fmt_d.o)
 .note.GNU-stack
                0x00000000        0x0 c:/program files/microchip/xc32/v4.00/bin/bin/../../lib/gcc/pic32c/8.3.1/../../../../pic32c/lib/thumb/v7e-m+fp/hard\libg-musl.a(__fmt_fp.o)
 .note.GNU-stack
                0x00000000        0x0 c:/program files/microchip/xc32/v4.00/bin/bin/../../lib/gcc/pic32c/8.3.1/../../../../pic32c/lib/thumb/v7e-m+fp/hard\libg-musl.a(__fmt_o.o)
 .note.GNU-stack
                0x00000000        0x0 c:/program files/microchip/xc32/v4.00/bin/bin/../../lib/gcc/pic32c/8.3.1/../../../../pic32c/lib/thumb/v7e-m+fp/hard\libg-musl.a(__fmt_s.o)
 .note.GNU-stack
                0x00000000        0x0 c:/program files/microchip/xc32/v4.00/bin/bin/../../lib/gcc/pic32c/8.3.1/../../../../pic32c/lib/thumb/v7e-m+fp/hard\libg-musl.a(__fmt_u.o)
 .note.GNU-stack
                0x00000000        0x0 c:/program files/microchip/xc32/v4.00/bin/bin/../../lib/gcc/pic32c/8.3.1/../../../../pic32c/lib/thumb/v7e-m+fp/hard\libg-musl.a(__fmt_x.o)
 .note.GNU-stack
                0x00000000        0x0 c:/program files/microchip/xc32/v4.00/bin/bin/../../lib/gcc/pic32c/8.3.1/../../../../pic32c/lib/thumb/v7e-m+fp/hard\libg-musl.a(__fwrite.o)
 .note.GNU-stack
                0x00000000        0x0 c:/program files/microchip/xc32/v4.00/bin/bin/../../lib/gcc/pic32c/8.3.1/../../../../pic32c/lib/thumb/v7e-m+fp/hard\libg-musl.a(__pop_float.o)
 .note.GNU-stack
                0x00000000        0x0 c:/program files/microchip/xc32/v4.00/bin/bin/../../lib/gcc/pic32c/8.3.1/../../../../pic32c/lib/thumb/v7e-m+fp/hard\libg-musl.a(__pop_int.o)
 .note.GNU-stack
                0x00000000        0x0 c:/program files/microchip/xc32/v4.00/bin/bin/../../lib/gcc/pic32c/8.3.1/../../../../pic32c/lib/thumb/v7e-m+fp/hard\libg-musl.a(__pop_ptr.o)
 .note.GNU-stack
                0x00000000        0x0 c:/program files/microchip/xc32/v4.00/bin/bin/../../lib/gcc/pic32c/8.3.1/../../../../pic32c/lib/thumb/v7e-m+fp/hard\libg-musl.a(toupper.o)

__xc_reference_data
                0x00000000       0xfc
 __xc_reference_data
                0x00000000        0x4 c:/program files/microchip/xc32/v4.00/bin/bin/../../lib/gcc/pic32c/8.3.1/../../../../pic32c/lib/thumb/v7e-m+fp/hard\libg-musl.a(stdin.o)
                0x00000000                __stdin_needs_rw
 __xc_reference_data
                0x00000004        0x4 c:/program files/microchip/xc32/v4.00/bin/bin/../../lib/gcc/pic32c/8.3.1/../../../../pic32c/lib/thumb/v7e-m+fp/hard\libg-musl.a(stdout.o)
                0x00000004                __stdout_needs_init
 __xc_reference_data
                0x00000008        0xc c:/program files/microchip/xc32/v4.00/bin/bin/../../lib/gcc/pic32c/8.3.1/../../../../pic32c/lib/thumb/v7e-m+fp/hard\libg-musl.a(__io_init_needed.o)
                0x00000008                __io_init_needed
                0x00000010                __io_init_needs_file
 __xc_reference_data
                0x00000014       0x24 c:/program files/microchip/xc32/v4.00/bin/bin/../../lib/gcc/pic32c/8.3.1/../../../../pic32c/lib/thumb/v7e-m+fp/hard\libg-musl.a(__io_rw_needed.o)
                0x00000014                __io_rw_needed
 __xc_reference_data
                0x00000038        0x4 c:/program files/microchip/xc32/v4.00/bin/bin/../../lib/gcc/pic32c/8.3.1/../../../../pic32c/lib/thumb/v7e-m+fp/hard\libg-musl.a(setvbuf.o)
                0x00000038                __setvbuf_needs_buf
 __xc_reference_data
                0x0000003c        0x4 c:/program files/microchip/xc32/v4.00/bin/bin/../../lib/gcc/pic32c/8.3.1/../../../../pic32c/lib/thumb/v7e-m+fp/hard\libg-musl.a(vfprintf.o)
                0x0000003c                __vfprintf_needs_fmt
 __xc_reference_data
                0x00000040       0x38 c:/program files/microchip/xc32/v4.00/bin/bin/../../lib/gcc/pic32c/8.3.1/../../../../pic32c/lib/thumb/v7e-m+fp/hard\libg-musl.a(__io_buf_needed.o)
                0x00000040                __io_buf_needed
 __xc_reference_data
                0x00000078        0x8 c:/program files/microchip/xc32/v4.00/bin/bin/../../lib/gcc/pic32c/8.3.1/../../../../pic32c/lib/thumb/v7e-m+fp/hard\libg-musl.a(__io_file_needed.o)
                0x00000078                __io_file_needed
 __xc_reference_data
                0x00000080       0x40 c:/program files/microchip/xc32/v4.00/bin/bin/../../lib/gcc/pic32c/8.3.1/../../../../pic32c/lib/thumb/v7e-m+fp/hard\libg-musl.a(__io_fmt_needed.o)
                0x00000080                __io_fmt_needed
 __xc_reference_data
                0x000000c0       0x30 c:/program files/microchip/xc32/v4.00/bin/bin/../../lib/gcc/pic32c/8.3.1/../../../../pic32c/lib/thumb/v7e-m+fp/hard\libg-musl.a(__io_std_needed.o)
                0x000000c0                __io_std_needed
 __xc_reference_data
                0x000000f0        0x4 c:/program files/microchip/xc32/v4.00/bin/bin/../../lib/gcc/pic32c/8.3.1/../../../../pic32c/lib/thumb/v7e-m+fp/hard\libg-musl.a(__stderr.o)
                0x000000f0                __stderr_needs_file
 __xc_reference_data
                0x000000f4        0x4 c:/program files/microchip/xc32/v4.00/bin/bin/../../lib/gcc/pic32c/8.3.1/../../../../pic32c/lib/thumb/v7e-m+fp/hard\libg-musl.a(__stdout.o)
                0x000000f4                __stdout_needs_file
 __xc_reference_data
                0x000000f8        0x4 c:/program files/microchip/xc32/v4.00/bin/bin/../../lib/gcc/pic32c/8.3.1/../../../../pic32c/lib/thumb/v7e-m+fp/hard\libg-musl.a(__fwrite.o)
                0x000000f8                __fwrite_needs_std

.stack          0x20003d38      0x100
 .stack         0x20003d38      0x100 stack

.bss.gDrvMemory0EraseBuffer%1
                0x20000000     0x2000
 .bss.gDrvMemory0EraseBuffer
                0x20000000     0x2000 build/sam_e54_xpro/debug/_ext/68098787/initialization.o

.bss.gSYSFSMediaBlockBuffer%2
                0x20002000      0x800
 .bss.gSYSFSMediaBlockBuffer
                0x20002000      0x800 build/sam_e54_xpro/debug/_ext/743848790/sys_fs_media_manager.o
                0x20002000                gSYSFSMediaBlockBuffer

.bss%3          0x20002800      0x408
 .bss           0x20002800      0x408 c:/program files/microchip/xc32/v4.00/bin/bin/../../lib/gcc/pic32c/8.3.1/../../../../pic32c/lib/thumb/v7e-m+fp/hard\libg-musl.a(stdin.o)

.bss.FATFSVolume%4
                0x20002c10      0x250
 .bss.FATFSVolume
                0x20002c10      0x250 build/sam_e54_xpro/debug/_ext/743848790/sys_fs_fat_interface.o

.bss.FATFSFileObject%5
                0x20002e60      0x240
 .bss.FATFSFileObject
                0x20002e60      0x240 build/sam_e54_xpro/debug/_ext/743848790/sys_fs_fat_interface.o

.bss%6          0x200030a0      0x20c
 .bss           0x200030a0      0x20c c:/program files/microchip/xc32/v4.00/bin/bin/../../lib/gcc/pic32c/8.3.1/../../../../pic32c/lib/thumb/v7e-m+fp/hard\libg-musl.a(malloc.o)

.bss.LfnBuf%7   0x200032ac      0x200
 .bss.LfnBuf    0x200032ac      0x200 build/sam_e54_xpro/debug/_ext/1171329604/ff.o

.bss.gSYSFSMediaBuffer%8
                0x200034b0      0x200
 .bss.gSYSFSMediaBuffer
                0x200034b0      0x200 build/sam_e54_xpro/debug/_ext/743848790/sys_fs_media_manager.o
                0x200034b0                gSYSFSMediaBuffer

.bss.gSYSFSFileObj%9
                0x200036b0      0x110
 .bss.gSYSFSFileObj
                0x200036b0      0x110 build/sam_e54_xpro/debug/_ext/743848790/sys_fs.o
                0x200036b0                gSYSFSFileObj

.bss.gDrvMemoryObj%10
                0x200037c0       0x98
 .bss.gDrvMemoryObj
                0x200037c0       0x98 build/sam_e54_xpro/debug/_ext/1062319119/drv_memory.o

.data%11        0x20003858       0xe0
 .data          0x20003858       0x78 c:/program files/microchip/xc32/v4.00/bin/bin/../../lib/gcc/pic32c/8.3.1/../../../../pic32c/lib/thumb/v7e-m+fp/hard\libg-musl.a(stdin.o)
                0x20003858                __stdin_used
                0x2000385c                _stdin
 .data          0x200038d0       0x68 c:/program files/microchip/xc32/v4.00/bin/bin/../../lib/gcc/pic32c/8.3.1/../../../../pic32c/lib/thumb/v7e-m+fp/hard\libg-musl.a(__stdout.o)

.bss%13         0x20003938       0x50
 .bss           0x20003938       0x50 c:/program files/microchip/xc32/v4.00/bin/bin/../../lib/gcc/pic32c/8.3.1/../../../../pic32c/lib/thumb/v7e-m+fp/hard\libg-musl.a(libc.o)
                0x20003938                __progname_full
                0x20003938                program_invocation_name
                0x2000393c                program_invocation_short_name
                0x2000393c                __progname
                0x20003940                __sysinfo
                0x20003944                __hwcap
                0x20003948                __libc

.bss.FATFSDirObject%14
                0x20003990       0x38
 .bss.FATFSDirObject
                0x20003990       0x38 build/sam_e54_xpro/debug/_ext/743848790/sys_fs_fat_interface.o

.bss.gSYSFSMediaObject%15
                0x200039c8       0x28
 .bss.gSYSFSMediaObject
                0x200039c8       0x28 build/sam_e54_xpro/debug/_ext/743848790/sys_fs_media_manager.o
                0x200039c8                gSYSFSMediaObject

.bss.gDrvMemory0BufferObject%16
                0x200039f0       0x24
 .bss.gDrvMemory0BufferObject
                0x200039f0       0x24 build/sam_e54_xpro/debug/_ext/68098787/initialization.o

.data%17        0x20003a14       0x20
 .data          0x20003a14       0x20 c:/program files/microchip/xc32/v4.00/bin/bin/../../lib/gcc/pic32c/8.3.1/../../../../pic32c/lib/thumb/v7e-m+fp/hard\libg-musl.a(stdout.o)
                0x20003a30                _stdout

.bss%18         0x20003a34       0x1c
 .bss           0x20003a34       0x1c c:/program files/microchip/xc32/v4.00/bin/bin/../../lib/gcc/pic32c/8.3.1/thumb/v7e-m+fp/hard/crtbegin.o

.bss.gSYSFSVolumeObject%19
                0x20003a50       0x1c
 .bss.gSYSFSVolumeObject
                0x20003a50       0x1c build/sam_e54_xpro/debug/_ext/743848790/sys_fs_media_manager.o
                0x20003a50                gSYSFSVolumeObject

.data.gSYSFSMediaManagerObj%20
                0x20003a6c       0x18
 .data.gSYSFSMediaManagerObj
                0x20003a6c       0x18 build/sam_e54_xpro/debug/_ext/743848790/sys_fs_media_manager.o
                0x20003a6c                gSYSFSMediaManagerObj

.data.gSYSFSVolumeName%21
                0x20003a84       0x14
 .data.gSYSFSVolumeName
                0x20003a84       0x14 build/sam_e54_xpro/debug/_ext/743848790/sys_fs_media_manager.o
                0x20003a84                gSYSFSVolumeName

.bss.Files%22   0x20003a98       0x10
 .bss.Files     0x20003a98       0x10 build/sam_e54_xpro/debug/_ext/1171329604/ff.o

.bss.gSYSFSDirObj%23
                0x20003aa8       0x10
 .bss.gSYSFSDirObj
                0x20003aa8       0x10 build/sam_e54_xpro/debug/_ext/743848790/sys_fs.o
                0x20003aa8                gSYSFSDirObj

.bss.gSYSFSMountPoint%24
                0x20003ab8       0x10
 .bss.gSYSFSMountPoint
                0x20003ab8       0x10 build/sam_e54_xpro/debug/_ext/743848790/sys_fs.o
                0x20003ab8                gSYSFSMountPoint

.bss.gDrvMemory0ClientObject%25
                0x20003ac8       0x10
 .bss.gDrvMemory0ClientObject
                0x20003ac8       0x10 build/sam_e54_xpro/debug/_ext/68098787/initialization.o

.bss.sysfsMountTable%26
                0x20003ad8        0xc
 .bss.sysfsMountTable
                0x20003ad8        0xc build/sam_e54_xpro/debug/_ext/68098787/initialization.o
                0x20003ad8                sysfsMountTable

.bss.appData%27
                0x20003ae4        0xc
 .bss.appData   0x20003ae4        0xc build/sam_e54_xpro/debug/_ext/1360937237/app.o

.bss.gSysFsDiskData%28
                0x20003af0        0x8
 .bss.gSysFsDiskData
                0x20003af0        0x8 build/sam_e54_xpro/debug/_ext/656274803/diskio.o

.bss.gSYSFSCurrentMountPoint%29
                0x20002c08        0x8
 .bss.gSYSFSCurrentMountPoint
                0x20002c08        0x8 build/sam_e54_xpro/debug/_ext/743848790/sys_fs.o
                0x20002c08                gSYSFSCurrentMountPoint

.bss.gSYSFSObj%30
                0x20003988        0x8
 .bss.gSYSFSObj
                0x20003988        0x8 build/sam_e54_xpro/debug/_ext/743848790/sys_fs.o
                0x20003988                gSYSFSObj

.bss%31         0x20003af8        0x8
 .bss           0x20003af8        0x8 c:/program files/microchip/xc32/v4.00/bin/bin/../../lib/gcc/pic32c/8.3.1/../../../../pic32c/lib/thumb/v7e-m+fp/hard\libg-musl.a(stdout.o)
                0x20003afc                __stdout_used

.bss.FatFs%32   0x200034ac        0x4
 .bss.FatFs     0x200034ac        0x4 build/sam_e54_xpro/debug/_ext/1171329604/ff.o

.bss.sysObj%33  0x20003b00        0x4
 .bss.sysObj    0x20003b00        0x4 build/sam_e54_xpro/debug/_ext/68098787/initialization.o
                0x20003b00                sysObj

.bss%34         0x20003b04       0x10
 .bss           0x20003b04        0x4 c:/program files/microchip/xc32/v4.00/bin/bin/../../lib/gcc/pic32c/8.3.1/../../../../pic32c/lib/thumb/v7e-m+fp/hard\libpic32c.a(data_init.o)
 .bss           0x20003b08        0x4 c:/program files/microchip/xc32/v4.00/bin/bin/../../lib/gcc/pic32c/8.3.1/../../../../pic32c/lib/thumb/v7e-m+fp/hard\libg-musl.a(__environ.o)
                0x20003b08                __environ
                0x20003b08                environ
                0x20003b08                ___environ
                0x20003b08                _environ
 .bss           0x20003b0c        0x4 c:/program files/microchip/xc32/v4.00/bin/bin/../../lib/gcc/pic32c/8.3.1/../../../../pic32c/lib/thumb/v7e-m+fp/hard\libg-musl.a(__errno_location.o)
                0x20003b0c                __errno_val
 .bss           0x20003b10        0x4 c:/program files/microchip/xc32/v4.00/bin/bin/../../lib/gcc/pic32c/8.3.1/../../../../pic32c/lib/thumb/v7e-m+fp/hard\libpic32c.a(sbrk.o)

.bss.VolToPart%38
                0x20003b14        0x2
 .bss.VolToPart
                0x20003b14        0x2 build/sam_e54_xpro/debug/_ext/743848790/sys_fs_media_manager.o
                0x20003b14                VolToPart

.bss.nvm_error%39
                0x20003b16        0x2
 .bss.nvm_error
                0x20003b16        0x2 build/sam_e54_xpro/debug/_ext/1986180951/plib_nvmctrl.o

.bss.Fsid%40    0x20003b18        0x2
 .bss.Fsid      0x20003b18        0x2 build/sam_e54_xpro/debug/_ext/1171329604/ff.o

.bss.CurrVol%41
                0x20003b1a        0x1
 .bss.CurrVol   0x20003b1a        0x1 build/sam_e54_xpro/debug/_ext/1171329604/ff.o

.bss.errorValue%42
                0x20003b1b        0x1
 .bss.errorValue
                0x20003b1b        0x1 build/sam_e54_xpro/debug/_ext/743848790/sys_fs.o
                0x20003b1b                errorValue

.bss.gSysFsMutex%43
                0x20003b1c        0x1
 .bss.gSysFsMutex
                0x20003b1c        0x1 build/sam_e54_xpro/debug/_ext/743848790/sys_fs.o
                0x20003b1c                gSysFsMutex

.bss.startupflag%44
                0x20003b1d        0x1
 .bss.startupflag
                0x20003b1d        0x1 build/sam_e54_xpro/debug/_ext/743848790/sys_fs_fat_interface.o

.eh_frame%z1    0x00000000        0x0
 .eh_frame      0x00000000        0x0 c:/program files/microchip/xc32/v4.00/bin/bin/../../lib/gcc/pic32c/8.3.1/thumb/v7e-m+fp/hard/crtbegin.o

.FAT_IMAGE%45   0x00080000    0x10000
 .FAT_IMAGE     0x00080000    0x10000 build/sam_e54_xpro/debug/_ext/1360937237/nvm_disk_images.o
                0x00080000                FAT_IMAGE

.config_00804000.__config_00804000%46
                0x00804000        0x4
 .config_00804000.__config_00804000
                0x00804000        0x4 build/sam_e54_xpro/debug/_ext/68098787/initialization.o
                0x00804000                __config_00804000

.config_00804004.__config_00804004%47
                0x00804004        0x4
 .config_00804004.__config_00804004
                0x00804004        0x4 build/sam_e54_xpro/debug/_ext/68098787/initialization.o
                0x00804004                __config_00804004

.config_00804008.__config_00804008%48
                0x00804008        0x4
 .config_00804008.__config_00804008
                0x00804008        0x4 build/sam_e54_xpro/debug/_ext/68098787/initialization.o
                0x00804008                __config_00804008

.text.f_mkfs%49
                0x00090000      0x808
 .text.f_mkfs   0x00090000      0x808 build/sam_e54_xpro/debug/_ext/1171329604/ff.o
                0x00090000                f_mkfs

.text.__fmt_a%50
                0x00090808      0x498
 .text.__fmt_a  0x00090808      0x498 c:/program files/microchip/xc32/v4.00/bin/bin/../../lib/gcc/pic32c/8.3.1/../../../../pic32c/lib/thumb/v7e-m+fp/hard\libg-musl.a(__fmt_a.o)
                0x00090808                __fmt_a_needed
                0x00090808                __fmt_a

.text.__fmt_fp%51
                0x00090ca0      0x488
 .text.__fmt_fp
                0x00090ca0      0x488 c:/program files/microchip/xc32/v4.00/bin/bin/../../lib/gcc/pic32c/8.3.1/../../../../pic32c/lib/thumb/v7e-m+fp/hard\libg-musl.a(__fmt_fp.o)
                0x00090ca0                __fmt_f_needed
                0x00090ca0                __fmt_fp

.text.SYS_FS_MEDIA_MANAGER_Tasks%52
                0x00091128      0x3f8
 .text.SYS_FS_MEDIA_MANAGER_Tasks
                0x00091128      0x3f8 build/sam_e54_xpro/debug/_ext/743848790/sys_fs_media_manager.o
                0x00091128                SYS_FS_MEDIA_MANAGER_Tasks

.text.follow_path%53
                0x00091520      0x3ac
 .text.follow_path
                0x00091520      0x3ac build/sam_e54_xpro/debug/_ext/1171329604/ff.o

.text.mount_volume%54
                0x000918cc      0x398
 .text.mount_volume
                0x000918cc      0x398 build/sam_e54_xpro/debug/_ext/1171329604/ff.o

.dinit%55       0x00091c64      0x350
 .dinit         0x00091c64      0x350 data_init

.text.f_printf%56
                0x00091fb4      0x320
 .text.f_printf
                0x00091fb4      0x320 build/sam_e54_xpro/debug/_ext/1171329604/ff.o
                0x00091fb4                f_printf

.text.__printf_core%57
                0x000922d4      0x2f4
 .text.__printf_core
                0x000922d4      0x2f4 c:/program files/microchip/xc32/v4.00/bin/bin/../../lib/gcc/pic32c/8.3.1/../../../../pic32c/lib/thumb/v7e-m+fp/hard\libg-musl.a(__printf_core.o)
                0x000922d4                __printf_core

.text%58        0x000925c8      0x2d0
 .text          0x000925c8      0x2d0 c:/program files/microchip/xc32/v4.00/bin/bin/../../lib/gcc/pic32c/8.3.1/thumb/v7e-m+fp/hard\libgcc.a(_udivmoddi4.o)
                0x000925c8                __udivmoddi4

.text.dir_register%59
                0x00092898      0x2b8
 .text.dir_register
                0x00092898      0x2b8 build/sam_e54_xpro/debug/_ext/1171329604/ff.o

.text.f_open%60
                0x00092b50      0x244
 .text.f_open   0x00092b50      0x244 build/sam_e54_xpro/debug/_ext/1171329604/ff.o
                0x00092b50                f_open

.text.__aeabi_dadd%61
                0x00092d94      0x240
 .text.__aeabi_dadd
                0x00092d94      0x240 c:/program files/microchip/xc32/v4.00/bin/bin/../../lib/gcc/pic32c/8.3.1/../../../../pic32c/lib/thumb/v7e-m+fp/hard\libm-emfloat.a(floatasmops_arm.o)
                0x00092d94                __aeabi_dadd

.rodata.cvt1.8309%62
                0x00092fd4      0x1f4
 .rodata.cvt1.8309
                0x00092fd4      0x1f4 build/sam_e54_xpro/debug/_ext/1171329604/ffunicode.o

.text.dir_find%63
                0x000931c8      0x1d8
 .text.dir_find
                0x000931c8      0x1d8 build/sam_e54_xpro/debug/_ext/1171329604/ff.o

.rodata%64      0x000933a0      0x1d4
 .rodata        0x000933a0      0x1d4 build/sam_e54_xpro/debug/_ext/1360937237/app.o

.text.f_write%65
                0x00093574      0x1c6
 .text.f_write  0x00093574      0x1c6 build/sam_e54_xpro/debug/_ext/1171329604/ff.o
                0x00093574                f_write

.text.__aeabi_ddiv%66
                0x0009373c      0x1c4
 .text.__aeabi_ddiv
                0x0009373c      0x1c4 c:/program files/microchip/xc32/v4.00/bin/bin/../../lib/gcc/pic32c/8.3.1/../../../../pic32c/lib/thumb/v7e-m+fp/hard\libm-emfloat.a(floatasmops_arm.o)
                0x0009373c                __aeabi_ddiv

.text.malloc%67
                0x00093900      0x1b0
 .text.malloc   0x00093900      0x1b0 c:/program files/microchip/xc32/v4.00/bin/bin/../../lib/gcc/pic32c/8.3.1/../../../../pic32c/lib/thumb/v7e-m+fp/hard\libg-musl.a(malloc.o)
                0x00093900                malloc

.text.DRV_MEMORY_Open%68
                0x00093ab0      0x1a4
 .text.DRV_MEMORY_Open
                0x00093ab0      0x1a4 build/sam_e54_xpro/debug/_ext/1062319119/drv_memory.o
                0x00093ab0                DRV_MEMORY_Open

.text.f_read%69
                0x00093c54      0x198
 .text.f_read   0x00093c54      0x198 build/sam_e54_xpro/debug/_ext/1171329604/ff.o
                0x00093c54                f_read

.text.SYS_FS_Mount%70
                0x00093dec      0x194
 .text.SYS_FS_Mount
                0x00093dec      0x194 build/sam_e54_xpro/debug/_ext/743848790/sys_fs.o
                0x00093dec                SYS_FS_Mount

.text.f_lseek%71
                0x00093f80      0x192
 .text.f_lseek  0x00093f80      0x192 build/sam_e54_xpro/debug/_ext/1171329604/ff.o
                0x00093f80                f_lseek

.text.create_partition%72
                0x00094114      0x188
 .text.create_partition
                0x00094114      0x188 build/sam_e54_xpro/debug/_ext/1171329604/ff.o

.text.SYS_FS_MEDIA_MANAGER_SectorWrite%73
                0x0009429c      0x188
 .text.SYS_FS_MEDIA_MANAGER_SectorWrite
                0x0009429c      0x188 build/sam_e54_xpro/debug/_ext/743848790/sys_fs_media_manager.o
                0x0009429c                SYS_FS_MEDIA_MANAGER_SectorWrite

.text.f_setlabel%74
                0x00094424      0x17c
 .text.f_setlabel
                0x00094424      0x17c build/sam_e54_xpro/debug/_ext/1171329604/ff.o
                0x00094424                f_setlabel

.text.get_fileinfo%75
                0x000945a0      0x164
 .text.get_fileinfo
                0x000945a0      0x164 build/sam_e54_xpro/debug/_ext/1171329604/ff.o

.text.DRV_MEMORY_SetupXfer%76
                0x00094704      0x144
 .text.DRV_MEMORY_SetupXfer
                0x00094704      0x144 build/sam_e54_xpro/debug/_ext/1062319119/drv_memory.o

.text.dir_read%77
                0x00094848      0x138
 .text.dir_read
                0x00094848      0x138 build/sam_e54_xpro/debug/_ext/1171329604/ff.o

.text.f_getcwd%78
                0x00094980      0x138
 .text.f_getcwd
                0x00094980      0x138 build/sam_e54_xpro/debug/_ext/1171329604/ff.o
                0x00094980                f_getcwd

.text.__aeabi_dmul%79
                0x00094ab8      0x130
 .text.__aeabi_dmul
                0x00094ab8      0x130 c:/program files/microchip/xc32/v4.00/bin/bin/../../lib/gcc/pic32c/8.3.1/../../../../pic32c/lib/thumb/v7e-m+fp/hard\libm-emfloat.a(floatasmops_arm.o)
                0x00094ab8                __aeabi_dmul

.text.put_fat%80
                0x00094be8      0x12c
 .text.put_fat  0x00094be8      0x12c build/sam_e54_xpro/debug/_ext/1171329604/ff.o

.text.f_rename%81
                0x00094d14      0x126
 .text.f_rename
                0x00094d14      0x126 build/sam_e54_xpro/debug/_ext/1171329604/ff.o
                0x00094d14                f_rename

.text.__fmt_x%82
                0x00094e3a      0x124
 .text.__fmt_x  0x00094e3a      0x124 c:/program files/microchip/xc32/v4.00/bin/bin/../../lib/gcc/pic32c/8.3.1/../../../../pic32c/lib/thumb/v7e-m+fp/hard\libg-musl.a(__fmt_x.o)
                0x00094e3a                __fmt_x_needed
                0x00094e3a                __fmt_x

.text.create_chain%83
                0x00094f5e      0x11e
 .text.create_chain
                0x00094f5e      0x11e build/sam_e54_xpro/debug/_ext/1171329604/ff.o

.text.DRV_MEMORY_Tasks%84
                0x0009507c      0x118
 .text.DRV_MEMORY_Tasks
                0x0009507c      0x118 build/sam_e54_xpro/debug/_ext/1062319119/drv_memory.o
                0x0009507c                DRV_MEMORY_Tasks

.text.APP_Tasks%85
                0x00095194      0x118
 .text.APP_Tasks
                0x00095194      0x118 build/sam_e54_xpro/debug/_ext/1360937237/app.o
                0x00095194                APP_Tasks

.text.f_mkdir%86
                0x000952ac      0x116
 .text.f_mkdir  0x000952ac      0x116 build/sam_e54_xpro/debug/_ext/1171329604/ff.o
                0x000952ac                f_mkdir

.text.SYS_FS_FileOpen%87
                0x000953c4      0x110
 .text.SYS_FS_FileOpen
                0x000953c4      0x110 build/sam_e54_xpro/debug/_ext/743848790/sys_fs.o
                0x000953c4                SYS_FS_FileOpen

.rodata.uc437%88
                0x000954d4      0x100
 .rodata.uc437  0x000954d4      0x100 build/sam_e54_xpro/debug/_ext/1171329604/ffunicode.o

.text.free%89   0x000955d4       0xf8
 .text.free     0x000955d4       0xf8 c:/program files/microchip/xc32/v4.00/bin/bin/../../lib/gcc/pic32c/8.3.1/../../../../pic32c/lib/thumb/v7e-m+fp/hard\libg-musl.a(malloc.o)
                0x000955d4                free

.text.check_fs%90
                0x000956cc       0xf0
 .text.check_fs
                0x000956cc       0xf0 build/sam_e54_xpro/debug/_ext/1171329604/ff.o

.text.DRV_MEMORY_HandleEraseWrite%91
                0x000957bc       0xee
 .text.DRV_MEMORY_HandleEraseWrite
                0x000957bc       0xee build/sam_e54_xpro/debug/_ext/1062319119/drv_memory.o

.text.CLOCK_Initialize%92
                0x000958ac       0xd8
 .text.CLOCK_Initialize
                0x000958ac       0xd8 build/sam_e54_xpro/debug/_ext/2056749927/plib_clock.o
                0x000958ac                CLOCK_Initialize

.text.f_getfree%93
                0x00095984       0xd8
 .text.f_getfree
                0x00095984       0xd8 build/sam_e54_xpro/debug/_ext/1171329604/ff.o
                0x00095984                f_getfree

.text.get_fat%94
                0x00095a5c       0xd0
 .text.get_fat  0x00095a5c       0xd0 build/sam_e54_xpro/debug/_ext/1171329604/ff.o

.text.f_unlink%95
                0x00095b2c       0xcc
 .text.f_unlink
                0x00095b2c       0xcc build/sam_e54_xpro/debug/_ext/1171329604/ff.o
                0x00095b2c                f_unlink

.text.floor%96  0x00095bf8       0xcc
 .text.floor    0x00095bf8       0xcc c:/program files/microchip/xc32/v4.00/bin/bin/../../lib/gcc/pic32c/8.3.1/../../../../pic32c/lib/thumb/v7e-m+fp/hard\libm-emfloat.a(lib_a-_FLOOR.o)
                0x00095bf8                floor

.text.dir_next%97
                0x00095cc4       0xc8
 .text.dir_next
                0x00095cc4       0xc8 build/sam_e54_xpro/debug/_ext/1171329604/ff.o

.text.SYS_FS_GetDisk%98
                0x00095d8c       0xc4
 .text.SYS_FS_GetDisk
                0x00095d8c       0xc4 build/sam_e54_xpro/debug/_ext/743848790/sys_fs.o

.text.f_truncate%99
                0x00095e50       0xc2
 .text.f_truncate
                0x00095e50       0xc2 build/sam_e54_xpro/debug/_ext/1171329604/ff.o
                0x00095e50                f_truncate

.rodata.cvt2.8310%100
                0x00095f14       0xbc
 .rodata.cvt2.8310
                0x00095f14       0xbc build/sam_e54_xpro/debug/_ext/1171329604/ffunicode.o

.text.ff_wtoupper%101
                0x00095fd0       0xb4
 .text.ff_wtoupper
                0x00095fd0       0xb4 build/sam_e54_xpro/debug/_ext/1171329604/ffunicode.o
                0x00095fd0                ff_wtoupper

.text.DRV_MEMORY_Initialize%102
                0x00096084       0xb0
 .text.DRV_MEMORY_Initialize
                0x00096084       0xb0 build/sam_e54_xpro/debug/_ext/1062319119/drv_memory.o
                0x00096084                DRV_MEMORY_Initialize

.text.dir_sdi%103
                0x00096134       0xb0
 .text.dir_sdi  0x00096134       0xb0 build/sam_e54_xpro/debug/_ext/1171329604/ff.o

.text.__fmt_d%104
                0x000961e4       0xa8
 .text.__fmt_d  0x000961e4       0xa8 c:/program files/microchip/xc32/v4.00/bin/bin/../../lib/gcc/pic32c/8.3.1/../../../../pic32c/lib/thumb/v7e-m+fp/hard\libg-musl.a(__fmt_d.o)
                0x000961e4                __fmt_d
                0x000961e4                __fmt_d_needed

.text.f_getlabel%105
                0x0009628c       0xa2
 .text.f_getlabel
                0x0009628c       0xa2 build/sam_e54_xpro/debug/_ext/1171329604/ff.o
                0x0009628c                f_getlabel

.text.__pop_int%106
                0x0009632e       0xa0
 .text.__pop_int
                0x0009632e       0xa0 c:/program files/microchip/xc32/v4.00/bin/bin/../../lib/gcc/pic32c/8.3.1/../../../../pic32c/lib/thumb/v7e-m+fp/hard\libg-musl.a(__pop_int.o)
                0x0009632e                __pop_int_needed
                0x0009632e                __pop_int

.text.f_sync%107
                0x000963ce       0x9c
 .text.f_sync   0x000963ce       0x9c build/sam_e54_xpro/debug/_ext/1171329604/ff.o
                0x000963ce                f_sync

.text.FATFS_unmount%108
                0x0009646c       0x9c
 .text.FATFS_unmount
                0x0009646c       0x9c build/sam_e54_xpro/debug/_ext/743848790/sys_fs_fat_interface.o
                0x0009646c                FATFS_unmount

.text.Reset_Handler%109
                0x00096508       0x98
 .text.Reset_Handler
                0x00096508       0x98 build/sam_e54_xpro/debug/_ext/68098787/startup_xc32.o
                0x00096508                Reset_Handler

.text.DRV_MEMORY_Close%110
                0x000965a0       0x94
 .text.DRV_MEMORY_Close
                0x000965a0       0x94 build/sam_e54_xpro/debug/_ext/1062319119/drv_memory.o
                0x000965a0                DRV_MEMORY_Close

.text.remove_chain%111
                0x00096634       0x94
 .text.remove_chain
                0x00096634       0x94 build/sam_e54_xpro/debug/_ext/1171329604/ff.o

.text.f_opendir%112
                0x000966c8       0x92
 .text.f_opendir
                0x000966c8       0x92 build/sam_e54_xpro/debug/_ext/1171329604/ff.o
                0x000966c8                f_opendir

.text.sync_fs%113
                0x0009675c       0x8c
 .text.sync_fs  0x0009675c       0x8c build/sam_e54_xpro/debug/_ext/1171329604/ff.o

.text.SYS_FS_FileStat%114
                0x000967e8       0x8c
 .text.SYS_FS_FileStat
                0x000967e8       0x8c build/sam_e54_xpro/debug/_ext/743848790/sys_fs.o
                0x000967e8                SYS_FS_FileStat

.text.__write_buffered%115
                0x00096874       0x8a
 .text.__write_buffered
                0x00096874       0x8a c:/program files/microchip/xc32/v4.00/bin/bin/../../lib/gcc/pic32c/8.3.1/../../../../pic32c/lib/thumb/v7e-m+fp/hard\libg-musl.a(__stdio_write.o)
                0x00096874                __do_write

.rodata.FatFsFunctions%116
                0x00096900       0x88
 .rodata.FatFsFunctions
                0x00096900       0x88 build/sam_e54_xpro/debug/_ext/68098787/initialization.o
                0x00096900                FatFsFunctions

.text.__pic32c_data_initialization%117
                0x00096988       0x88
 .text.__pic32c_data_initialization
                0x00096988       0x88 c:/program files/microchip/xc32/v4.00/bin/bin/../../lib/gcc/pic32c/8.3.1/../../../../pic32c/lib/thumb/v7e-m+fp/hard\libpic32c.a(data_init.o)
                0x00096988                __pic32c_data_initialization

.rodata.ExCvt%118
                0x00096a10       0x80
 .rodata.ExCvt  0x00096a10       0x80 build/sam_e54_xpro/debug/_ext/1171329604/ff.o

.text.__pad%119
                0x00096a90       0x7e
 .text.__pad    0x00096a90       0x7e c:/program files/microchip/xc32/v4.00/bin/bin/../../lib/gcc/pic32c/8.3.1/../../../../pic32c/lib/thumb/v7e-m+fp/hard\libg-musl.a(__printf_core.o)
                0x00096a90                __pad

.text.FATFS_mount%120
                0x00096b10       0x7c
 .text.FATFS_mount
                0x00096b10       0x7c build/sam_e54_xpro/debug/_ext/743848790/sys_fs_fat_interface.o
                0x00096b10                FATFS_mount

.text.__pop_ptr%121
                0x00096b8c       0x7c
 .text.__pop_ptr
                0x00096b8c       0x7c c:/program files/microchip/xc32/v4.00/bin/bin/../../lib/gcc/pic32c/8.3.1/../../../../pic32c/lib/thumb/v7e-m+fp/hard\libg-musl.a(__pop_ptr.o)
                0x00096b8c                __pop_ptr
                0x00096b8c                __pop_ptr_needed

.text.SYS_FS_FileWrite%122
                0x00096c08       0x78
 .text.SYS_FS_FileWrite
                0x00096c08       0x78 build/sam_e54_xpro/debug/_ext/743848790/sys_fs.o
                0x00096c08                SYS_FS_FileWrite

.text.__cvt_u%123
                0x00096c80       0x78
 .text.__cvt_u  0x00096c80       0x78 c:/program files/microchip/xc32/v4.00/bin/bin/../../lib/gcc/pic32c/8.3.1/../../../../pic32c/lib/thumb/v7e-m+fp/hard\libg-musl.a(__fmt_u.o)
                0x00096c80                __cvt_u

.text.__stdio_write_buffered%124
                0x00096cf8       0x76
 .text.__stdio_write_buffered
                0x00096cf8       0x76 c:/program files/microchip/xc32/v4.00/bin/bin/../../lib/gcc/pic32c/8.3.1/../../../../pic32c/lib/thumb/v7e-m+fp/hard\libg-musl.a(__stdio_write.o)
                0x00096cf8                __stdio_write_buffered

.text.inc_lock%125
                0x00096d70       0x74
 .text.inc_lock
                0x00096d70       0x74 build/sam_e54_xpro/debug/_ext/1171329604/ff.o

.text.__fmt_o%126
                0x00096de4       0x72
 .text.__fmt_o  0x00096de4       0x72 c:/program files/microchip/xc32/v4.00/bin/bin/../../lib/gcc/pic32c/8.3.1/../../../../pic32c/lib/thumb/v7e-m+fp/hard\libg-musl.a(__fmt_o.o)
                0x00096de4                __fmt_o
                0x00096de4                __fmt_o_needed

.text.DRV_MEMORY_DriverHandleValidate%127
                0x00096e58       0x70
 .text.DRV_MEMORY_DriverHandleValidate
                0x00096e58       0x70 build/sam_e54_xpro/debug/_ext/1062319119/drv_memory.o

.text.SYS_FS_FileClose%128
                0x00096ec8       0x70
 .text.SYS_FS_FileClose
                0x00096ec8       0x70 build/sam_e54_xpro/debug/_ext/743848790/sys_fs.o
                0x00096ec8                SYS_FS_FileClose

.text.DRV_MEMORY_HandleWrite%129
                0x00096f38       0x6c
 .text.DRV_MEMORY_HandleWrite
                0x00096f38       0x6c build/sam_e54_xpro/debug/_ext/1062319119/drv_memory.o

.text.DRV_MEMORY_CommandStatusGet%130
                0x00096fa4       0x64
 .text.DRV_MEMORY_CommandStatusGet
                0x00096fa4       0x64 build/sam_e54_xpro/debug/_ext/1062319119/drv_memory.o
                0x00096fa4                DRV_MEMORY_CommandStatusGet

.text.f_mount%131
                0x00097008       0x64
 .text.f_mount  0x00097008       0x64 build/sam_e54_xpro/debug/_ext/1171329604/ff.o
                0x00097008                f_mount

.text.SYS_Initialize%132
                0x0009706c       0x64
 .text.SYS_Initialize
                0x0009706c       0x64 build/sam_e54_xpro/debug/_ext/68098787/initialization.o
                0x0009706c                SYS_Initialize

.text.__stdio_close_rw%133
                0x000970d0       0x64
 .text.__stdio_close_rw
                0x000970d0       0x64 c:/program files/microchip/xc32/v4.00/bin/bin/../../lib/gcc/pic32c/8.3.1/../../../../pic32c/lib/thumb/v7e-m+fp/hard\libg-musl.a(__stdio_close.o)
                0x000970d0                __stdio_close_rw

.text.DRV_MEMORY_HandleErase%134
                0x00097134       0x62
 .text.DRV_MEMORY_HandleErase
                0x00097134       0x62 build/sam_e54_xpro/debug/_ext/1062319119/drv_memory.o

.text.f_chdir%135
                0x00097196       0x60
 .text.f_chdir  0x00097196       0x60 build/sam_e54_xpro/debug/_ext/1171329604/ff.o
                0x00097196                f_chdir

.text.__stdio_read%136
                0x000971f6       0x60
 .text.__stdio_read
                0x000971f6       0x60 c:/program files/microchip/xc32/v4.00/bin/bin/../../lib/gcc/pic32c/8.3.1/../../../../pic32c/lib/thumb/v7e-m+fp/hard\libg-musl.a(__stdio_read.o)
                0x000971f6                __stdio_read

.text.f_chmod%137
                0x00097256       0x5e
 .text.f_chmod  0x00097256       0x5e build/sam_e54_xpro/debug/_ext/1171329604/ff.o
                0x00097256                f_chmod

.text.chk_lock%138
                0x000972b4       0x5c
 .text.chk_lock
                0x000972b4       0x5c build/sam_e54_xpro/debug/_ext/1171329604/ff.o

.text.get_ldnumber%139
                0x00097310       0x5c
 .text.get_ldnumber
                0x00097310       0x5c build/sam_e54_xpro/debug/_ext/1171329604/ff.o

.text.dir_clear%140
                0x0009736c       0x5c
 .text.dir_clear
                0x0009736c       0x5c build/sam_e54_xpro/debug/_ext/1171329604/ff.o

.text.dir_remove%141
                0x000973c8       0x5c
 .text.dir_remove
                0x000973c8       0x5c build/sam_e54_xpro/debug/_ext/1171329604/ff.o

.text.f_utime%142
                0x00097424       0x5c
 .text.f_utime  0x00097424       0x5c build/sam_e54_xpro/debug/_ext/1171329604/ff.o
                0x00097424                f_utime

.text.SYS_FS_Initialize%143
                0x00097480       0x5c
 .text.SYS_FS_Initialize
                0x00097480       0x5c build/sam_e54_xpro/debug/_ext/743848790/sys_fs.o
                0x00097480                SYS_FS_Initialize

.text.SYS_FS_MEDIA_MANAGER_MediaStatusGet%144
                0x000974dc       0x5c
 .text.SYS_FS_MEDIA_MANAGER_MediaStatusGet
                0x000974dc       0x5c build/sam_e54_xpro/debug/_ext/743848790/sys_fs_media_manager.o
                0x000974dc                SYS_FS_MEDIA_MANAGER_MediaStatusGet

.text.FATFS_open%145
                0x00097538       0x5c
 .text.FATFS_open
                0x00097538       0x5c build/sam_e54_xpro/debug/_ext/743848790/sys_fs_fat_interface.o
                0x00097538                FATFS_open

.text.__libc_start_init%146
                0x00097594       0x5c
 .text.__libc_start_init
                0x00097594       0x5c c:/program files/microchip/xc32/v4.00/bin/bin/../../lib/gcc/pic32c/8.3.1/../../../../pic32c/lib/thumb/v7e-m+fp/hard\libg-musl.a(__libc_start_main.o)
                0x00097594                __libc_init_array

.rodata%147     0x000975f0       0x5c
 .rodata        0x000975f0       0x5c c:/program files/microchip/xc32/v4.00/bin/bin/../../lib/gcc/pic32c/8.3.1/../../../../pic32c/lib/thumb/v7e-m+fp/hard\libg-musl.a(malloc.o)

.text.f_gets%148
                0x0009764c       0x5a
 .text.f_gets   0x0009764c       0x5a build/sam_e54_xpro/debug/_ext/1171329604/ff.o
                0x0009764c                f_gets

.text.unbin%149
                0x000976a8       0x58
 .text.unbin    0x000976a8       0x58 c:/program files/microchip/xc32/v4.00/bin/bin/../../lib/gcc/pic32c/8.3.1/../../../../pic32c/lib/thumb/v7e-m+fp/hard\libg-musl.a(malloc.o)

.text.__fmt_s%150
                0x00097700       0x58
 .text.__fmt_s  0x00097700       0x58 c:/program files/microchip/xc32/v4.00/bin/bin/../../lib/gcc/pic32c/8.3.1/../../../../pic32c/lib/thumb/v7e-m+fp/hard\libg-musl.a(__fmt_s.o)
                0x00097700                __fmt_s
                0x00097700                __fmt_0_needed
                0x00097700                __fmt_s_needed

.text.__fmt_u%151
                0x00097758       0x56
 .text.__fmt_u  0x00097758       0x56 c:/program files/microchip/xc32/v4.00/bin/bin/../../lib/gcc/pic32c/8.3.1/../../../../pic32c/lib/thumb/v7e-m+fp/hard\libg-musl.a(__fmt_u.o)
                0x00097758                __fmt_u_needed
                0x00097758                __fmt_u

.text.dir_alloc%152
                0x000977ae       0x54
 .text.dir_alloc
                0x000977ae       0x54 build/sam_e54_xpro/debug/_ext/1171329604/ff.o

.rodata%153     0x00097804       0x54
 .rodata        0x00097804       0x54 build/sam_e54_xpro/debug/_ext/1171329604/ff.o

.text.SYS_FS_MEDIA_MANAGER_SectorRead%154
                0x00097858       0x54
 .text.SYS_FS_MEDIA_MANAGER_SectorRead
                0x00097858       0x54 build/sam_e54_xpro/debug/_ext/743848790/sys_fs_media_manager.o
                0x00097858                SYS_FS_MEDIA_MANAGER_SectorRead

.text.f_readdir%155
                0x000978ac       0x4e
 .text.f_readdir
                0x000978ac       0x4e build/sam_e54_xpro/debug/_ext/1171329604/ff.o
                0x000978ac                f_readdir

.text.setvbuf%156
                0x000978fc       0x4c
 .text.setvbuf  0x000978fc       0x4c c:/program files/microchip/xc32/v4.00/bin/bin/../../lib/gcc/pic32c/8.3.1/../../../../pic32c/lib/thumb/v7e-m+fp/hard\libg-musl.a(setvbuf.o)
                0x000978fc                setvbuf

.text.__aeabi_d2iz%157
                0x00097948       0x4c
 .text.__aeabi_d2iz
                0x00097948       0x4c c:/program files/microchip/xc32/v4.00/bin/bin/../../lib/gcc/pic32c/8.3.1/../../../../pic32c/lib/thumb/v7e-m+fp/hard\libm-emfloat.a(floatasmops_arm.o)
                0x00097948                __aeabi_d2iz

.text.sync_window%158
                0x00097994       0x48
 .text.sync_window
                0x00097994       0x48 build/sam_e54_xpro/debug/_ext/1171329604/ff.o

.text.ff_uni2oem%159
                0x000979dc       0x48
 .text.ff_uni2oem
                0x000979dc       0x48 build/sam_e54_xpro/debug/_ext/1171329604/ffunicode.o
                0x000979dc                ff_uni2oem

.text.SERCOM2_USART_Write%160
                0x00097a24       0x48
 .text.SERCOM2_USART_Write
                0x00097a24       0x48 build/sam_e54_xpro/debug/_ext/2060180706/plib_sercom2_usart.o
                0x00097a24                SERCOM2_USART_Write

.text.validate%161
                0x00097a6c       0x46
 .text.validate
                0x00097a6c       0x46 build/sam_e54_xpro/debug/_ext/1171329604/ff.o

.text.atoi%162  0x00097ab2       0x46
 .text.atoi     0x00097ab2       0x46 c:/program files/microchip/xc32/v4.00/bin/bin/../../lib/gcc/pic32c/8.3.1/../../../../pic32c/lib/thumb/v7e-m+fp/hard\libg-musl.a(atoi.o)
                0x00097ab2                atoi

.text.f_stat%163
                0x00097af8       0x44
 .text.f_stat   0x00097af8       0x44 build/sam_e54_xpro/debug/_ext/1171329604/ff.o
                0x00097af8                f_stat

.text%164       0x00097b3c       0x40
 .text          0x00097b3c       0x40 c:/program files/microchip/xc32/v4.00/bin/bin/../../lib/gcc/pic32c/8.3.1/thumb/v7e-m+fp/hard/crtbegin.o

.text.DRV_MEMORY_HandleRead%165
                0x00097b7c       0x40
 .text.DRV_MEMORY_HandleRead
                0x00097b7c       0x40 build/sam_e54_xpro/debug/_ext/1062319119/drv_memory.o

.text.NVMCTRL_PageWrite%166
                0x00097bbc       0x40
 .text.NVMCTRL_PageWrite
                0x00097bbc       0x40 build/sam_e54_xpro/debug/_ext/1986180951/plib_nvmctrl.o
                0x00097bbc                NVMCTRL_PageWrite

.text.disk_checkCommandStatus%167
                0x00097bfc       0x40
 .text.disk_checkCommandStatus
                0x00097bfc       0x40 build/sam_e54_xpro/debug/_ext/656274803/diskio.o

.text.SYS_FS_MEDIA_MANAGER_Register%168
                0x00097c3c       0x40
 .text.SYS_FS_MEDIA_MANAGER_Register
                0x00097c3c       0x40 build/sam_e54_xpro/debug/_ext/743848790/sys_fs_media_manager.o
                0x00097c3c                SYS_FS_MEDIA_MANAGER_Register

.text.adjust_size%169
                0x00097c7c       0x40
 .text.adjust_size
                0x00097c7c       0x40 c:/program files/microchip/xc32/v4.00/bin/bin/../../lib/gcc/pic32c/8.3.1/../../../../pic32c/lib/thumb/v7e-m+fp/hard\libg-musl.a(malloc.o)

.text.write%170
                0x00097cbc       0x40
 .text.write    0x00097cbc       0x40 c:/program files/microchip/xc32/v4.00/bin/bin/../../lib/gcc/pic32c/8.3.1/../../../../pic32c/lib/thumb/v7e-m+fp/hard\libpic32c.a(write.o)
                0x00097cbc                write

.text.putc_bfd%171
                0x00097cfc       0x3e
 .text.putc_bfd
                0x00097cfc       0x3e build/sam_e54_xpro/debug/_ext/1171329604/ff.o

.text.FATFS_getclusters%172
                0x00097d3a       0x3e
 .text.FATFS_getclusters
                0x00097d3a       0x3e build/sam_e54_xpro/debug/_ext/743848790/sys_fs_fat_interface.o
                0x00097d3a                FATFS_getclusters

.text.move_window%173
                0x00097d78       0x3c
 .text.move_window
                0x00097d78       0x3c build/sam_e54_xpro/debug/_ext/1171329604/ff.o

.text.putc_flush%174
                0x00097db4       0x3a
 .text.putc_flush
                0x00097db4       0x3a build/sam_e54_xpro/debug/_ext/1171329604/ff.o

.text.disk_ioctl%175
                0x00097dee       0x3a
 .text.disk_ioctl
                0x00097dee       0x3a build/sam_e54_xpro/debug/_ext/656274803/diskio.o
                0x00097dee                disk_ioctl

.text.__out%176
                0x00097e28       0x3a
 .text.__out    0x00097e28       0x3a c:/program files/microchip/xc32/v4.00/bin/bin/../../lib/gcc/pic32c/8.3.1/../../../../pic32c/lib/thumb/v7e-m+fp/hard\libg-musl.a(__out.o)
                0x00097e28                __out
                0x00097e28                __out_needed

.text.MPU_Initialize%177
                0x00097e64       0x38
 .text.MPU_Initialize
                0x00097e64       0x38 build/sam_e54_xpro/debug/_ext/1950920501/plib_mpu.o
                0x00097e64                MPU_Initialize

.text.PORT_Initialize%178
                0x00097e9c       0x38
 .text.PORT_Initialize
                0x00097e9c       0x38 build/sam_e54_xpro/debug/_ext/348904952/plib_port.o
                0x00097e9c                PORT_Initialize

.text.bin_index%179
                0x00097ed4       0x38
 .text.bin_index
                0x00097ed4       0x38 c:/program files/microchip/xc32/v4.00/bin/bin/../../lib/gcc/pic32c/8.3.1/../../../../pic32c/lib/thumb/v7e-m+fp/hard\libg-musl.a(malloc.o)

.text.__fmt_state%180
                0x00097f0c       0x38
 .text.__fmt_state
                0x00097f0c       0x38 c:/program files/microchip/xc32/v4.00/bin/bin/../../lib/gcc/pic32c/8.3.1/../../../../pic32c/lib/thumb/v7e-m+fp/hard\libg-musl.a(__printf_core.o)
                0x00097f0c                __fmt_state

.text.__aeabi_dcmpgt%181
                0x00097f44       0x38
 .text.__aeabi_dcmpgt
                0x00097f44       0x38 c:/program files/microchip/xc32/v4.00/bin/bin/../../lib/gcc/pic32c/8.3.1/../../../../pic32c/lib/thumb/v7e-m+fp/hard\libm-emfloat.a(floatasmops_arm.o)
                0x00097f44                __aeabi_dcmpgt

.text.__aeabi_dcmplt%182
                0x00097f7c       0x38
 .text.__aeabi_dcmplt
                0x00097f7c       0x38 c:/program files/microchip/xc32/v4.00/bin/bin/../../lib/gcc/pic32c/8.3.1/../../../../pic32c/lib/thumb/v7e-m+fp/hard\libm-emfloat.a(floatasmops_arm.o)
                0x00097f7c                __aeabi_dcmplt

.text.dec_lock%183
                0x00097fb4       0x34
 .text.dec_lock
                0x00097fb4       0x34 build/sam_e54_xpro/debug/_ext/1171329604/ff.o

.text.f_close%184
                0x00097fe8       0x34
 .text.f_close  0x00097fe8       0x34 build/sam_e54_xpro/debug/_ext/1171329604/ff.o
                0x00097fe8                f_close

.text.f_fdisk%185
                0x0009801c       0x34
 .text.f_fdisk  0x0009801c       0x34 build/sam_e54_xpro/debug/_ext/1171329604/ff.o
                0x0009801c                f_fdisk

.text.SERCOM2_USART_Initialize%186
                0x00098050       0x34
 .text.SERCOM2_USART_Initialize
                0x00098050       0x34 build/sam_e54_xpro/debug/_ext/2060180706/plib_sercom2_usart.o
                0x00098050                SERCOM2_USART_Initialize

.text.__aeabi_dcmpeq%187
                0x00098084       0x34
 .text.__aeabi_dcmpeq
                0x00098084       0x34 c:/program files/microchip/xc32/v4.00/bin/bin/../../lib/gcc/pic32c/8.3.1/../../../../pic32c/lib/thumb/v7e-m+fp/hard\libm-emfloat.a(floatasmops_arm.o)
                0x00098084                __aeabi_dcmpeq

.rodata.memoryMediaFunctions%188
                0x000980b8       0x30
 .rodata.memoryMediaFunctions
                0x000980b8       0x30 build/sam_e54_xpro/debug/_ext/1062319119/drv_memory_file_system.o
                0x000980b8                memoryMediaFunctions

.text.f_puts%189
                0x000980e8       0x30
 .text.f_puts   0x000980e8       0x30 build/sam_e54_xpro/debug/_ext/1171329604/ff.o
                0x000980e8                f_puts

.text.disk_write%190
                0x00098118       0x30
 .text.disk_write
                0x00098118       0x30 build/sam_e54_xpro/debug/_ext/656274803/diskio.o
                0x00098118                disk_write

.text.SYS_FS_MEDIA_MANAGER_EventHandler%191
                0x00098148       0x30
 .text.SYS_FS_MEDIA_MANAGER_EventHandler
                0x00098148       0x30 build/sam_e54_xpro/debug/_ext/743848790/sys_fs_media_manager.o
                0x00098148                SYS_FS_MEDIA_MANAGER_EventHandler

.text.SYS_FS_MEDIA_MANAGER_VolumePropertyGet%192
                0x00098178       0x30
 .text.SYS_FS_MEDIA_MANAGER_VolumePropertyGet
                0x00098178       0x30 build/sam_e54_xpro/debug/_ext/743848790/sys_fs_media_manager.o
                0x00098178                SYS_FS_MEDIA_MANAGER_VolumePropertyGet

.text.alloc_rev%193
                0x000981a8       0x30
 .text.alloc_rev
                0x000981a8       0x30 c:/program files/microchip/xc32/v4.00/bin/bin/../../lib/gcc/pic32c/8.3.1/../../../../pic32c/lib/thumb/v7e-m+fp/hard\libg-musl.a(malloc.o)

.text%194       0x000981d8       0x30
 .text          0x000981d8       0x30 c:/program files/microchip/xc32/v4.00/bin/bin/../../lib/gcc/pic32c/8.3.1/thumb/v7e-m+fp/hard\libgcc.a(_aeabi_uldivmod.o)
                0x000981d8                __aeabi_uldivmod

.text.trim%195  0x00098208       0x2e
 .text.trim     0x00098208       0x2e c:/program files/microchip/xc32/v4.00/bin/bin/../../lib/gcc/pic32c/8.3.1/../../../../pic32c/lib/thumb/v7e-m+fp/hard\libg-musl.a(malloc.o)

.text.ff_oem2uni%196
                0x00098238       0x2c
 .text.ff_oem2uni
                0x00098238       0x2c build/sam_e54_xpro/debug/_ext/1171329604/ffunicode.o
                0x00098238                ff_oem2uni

.text.disk_read%197
                0x00098264       0x2c
 .text.disk_read
                0x00098264       0x2c build/sam_e54_xpro/debug/_ext/656274803/diskio.o
                0x00098264                disk_read

.text.FATFS_opendir%198
                0x00098290       0x2c
 .text.FATFS_opendir
                0x00098290       0x2c build/sam_e54_xpro/debug/_ext/743848790/sys_fs_fat_interface.o
                0x00098290                FATFS_opendir

.text.__readv%199
                0x000982bc       0x2c
 .text.__readv  0x000982bc       0x2c c:/program files/microchip/xc32/v4.00/bin/bin/../../lib/gcc/pic32c/8.3.1/../../../../pic32c/lib/thumb/v7e-m+fp/hard\libg-musl.a(readv.o)
                0x000982bc                readv

.text.alloc_fwd%200
                0x000982e8       0x2c
 .text.alloc_fwd
                0x000982e8       0x2c c:/program files/microchip/xc32/v4.00/bin/bin/../../lib/gcc/pic32c/8.3.1/../../../../pic32c/lib/thumb/v7e-m+fp/hard\libg-musl.a(malloc.o)

.text.__writev%201
                0x00098314       0x2c
 .text.__writev
                0x00098314       0x2c c:/program files/microchip/xc32/v4.00/bin/bin/../../lib/gcc/pic32c/8.3.1/../../../../pic32c/lib/thumb/v7e-m+fp/hard\libg-musl.a(writev.o)
                0x00098314                writev

.text.fma%202   0x00098340       0x2c
 .text.fma      0x00098340       0x2c c:/program files/microchip/xc32/v4.00/bin/bin/../../lib/gcc/pic32c/8.3.1/../../../../pic32c/lib/thumb/v7e-m+fp/hard\libm-emfloat.a(lib_a-_FMA.o)
                0x00098340                fma

.text._sbrk%203
                0x0009836c       0x2c
 .text._sbrk    0x0009836c       0x2c c:/program files/microchip/xc32/v4.00/bin/bin/../../lib/gcc/pic32c/8.3.1/../../../../pic32c/lib/thumb/v7e-m+fp/hard\libpic32c.a(sbrk.o)
                0x0009836c                _sbrk

.text.DRV_NVMCTRL_GeometryGet%204
                0x00098398       0x2a
 .text.DRV_NVMCTRL_GeometryGet
                0x00098398       0x2a build/sam_e54_xpro/debug/_ext/1062319119/drv_memory_nvmctrl.o
                0x00098398                DRV_NVMCTRL_GeometryGet

.text.f_closedir%205
                0x000983c2       0x2a
 .text.f_closedir
                0x000983c2       0x2a build/sam_e54_xpro/debug/_ext/1171329604/ff.o
                0x000983c2                f_closedir

.text.__pop_float%206
                0x000983ec       0x2a
 .text.__pop_float
                0x000983ec       0x2a c:/program files/microchip/xc32/v4.00/bin/bin/../../lib/gcc/pic32c/8.3.1/../../../../pic32c/lib/thumb/v7e-m+fp/hard\libg-musl.a(__pop_float.o)
                0x000983ec                __pop_float_needed
                0x000983ec                __pop_float

.text.tchar2uni%207
                0x00098416       0x28
 .text.tchar2uni
                0x00098416       0x28 build/sam_e54_xpro/debug/_ext/1171329604/ff.o

.text.FATFS_mkfs%208
                0x0009843e       0x28
 .text.FATFS_mkfs
                0x0009843e       0x28 build/sam_e54_xpro/debug/_ext/743848790/sys_fs_fat_interface.o
                0x0009843e                FATFS_mkfs

.rodata.drvMemory0InitData%209
                0x00098468       0x28
 .rodata.drvMemory0InitData
                0x00098468       0x28 build/sam_e54_xpro/debug/_ext/68098787/initialization.o
                0x00098468                drvMemory0InitData

.text.__towrite_rw%210
                0x00098490       0x28
 .text.__towrite_rw
                0x00098490       0x28 c:/program files/microchip/xc32/v4.00/bin/bin/../../lib/gcc/pic32c/8.3.1/../../../../pic32c/lib/thumb/v7e-m+fp/hard\libg-musl.a(__towrite_rw.o)
                0x00098490                __towrite_rw
                0x00098490                __towrite_rw_needed

.text.f_putc%211
                0x000984b8       0x26
 .text.f_putc   0x000984b8       0x26 build/sam_e54_xpro/debug/_ext/1171329604/ff.o
                0x000984b8                f_putc

.text.get_fattime%212
                0x000984de       0x26
 .text.get_fattime
                0x000984de       0x26 build/sam_e54_xpro/debug/_ext/656274803/diskio.o
                0x000984de                get_fattime

.text.NVIC_Initialize%213
                0x00098504       0x24
 .text.NVIC_Initialize
                0x00098504       0x24 build/sam_e54_xpro/debug/_ext/348958103/plib_nvic.o
                0x00098504                NVIC_Initialize

.text.f_chdrive%214
                0x00098528       0x24
 .text.f_chdrive
                0x00098528       0x24 build/sam_e54_xpro/debug/_ext/1171329604/ff.o
                0x00098528                f_chdrive

.rodata.drvMemory0DeviceAPI%215
                0x0009854c       0x24
 .rodata.drvMemory0DeviceAPI
                0x0009854c       0x24 build/sam_e54_xpro/debug/_ext/68098787/initialization.o
                0x0009854c                drvMemory0DeviceAPI

.text.printf%216
                0x00098570       0x24
 .text.printf   0x00098570       0x24 c:/program files/microchip/xc32/v4.00/bin/bin/../../lib/gcc/pic32c/8.3.1/../../../../pic32c/lib/thumb/v7e-m+fp/hard\libg-musl.a(printf.o)
                0x00098570                __printf_di
                0x00098570                printf

.text.strncmp%217
                0x00098594       0x24
 .text.strncmp  0x00098594       0x24 c:/program files/microchip/xc32/v4.00/bin/bin/../../lib/gcc/pic32c/8.3.1/../../../../pic32c/lib/thumb/v7e-m+fp/hard\libg-musl.a(strncmp.o)
                0x00098594                strncmp

.text.SYS_FS_MEDIA_MANAGER_IsFSFat%218
                0x000985b8       0x22
 .text.SYS_FS_MEDIA_MANAGER_IsFSFat
                0x000985b8       0x22 build/sam_e54_xpro/debug/_ext/743848790/sys_fs_media_manager.o

.text.FATFS_chdrive%219
                0x000985da       0x22
 .text.FATFS_chdrive
                0x000985da       0x22 build/sam_e54_xpro/debug/_ext/743848790/sys_fs_fat_interface.o
                0x000985da                FATFS_chdrive

.text.DRV_MEMORY_GeometryGet%220
                0x000985fc       0x20
 .text.DRV_MEMORY_GeometryGet
                0x000985fc       0x20 build/sam_e54_xpro/debug/_ext/1062319119/drv_memory.o
                0x000985fc                DRV_MEMORY_GeometryGet

.text.DRV_MEMORY_AddressGet%221
                0x0009861c       0x20
 .text.DRV_MEMORY_AddressGet
                0x0009861c       0x20 build/sam_e54_xpro/debug/_ext/1062319119/drv_memory.o
                0x0009861c                DRV_MEMORY_AddressGet

.text.ld_clust%222
                0x0009863c       0x20
 .text.ld_clust
                0x0009863c       0x20 build/sam_e54_xpro/debug/_ext/1171329604/ff.o

.text.diskEventHandler%223
                0x0009865c       0x20
 .text.diskEventHandler
                0x0009865c       0x20 build/sam_e54_xpro/debug/_ext/656274803/diskio.o
                0x0009865c                diskEventHandler

.text.SYS_FS_MEDIA_MANAGER_TransferTask%224
                0x0009867c       0x20
 .text.SYS_FS_MEDIA_MANAGER_TransferTask
                0x0009867c       0x20 build/sam_e54_xpro/debug/_ext/743848790/sys_fs_media_manager.o
                0x0009867c                SYS_FS_MEDIA_MANAGER_TransferTask

.rodata%225     0x0009869c       0x20
 .rodata        0x0009869c       0x20 build/sam_e54_xpro/debug/_ext/743848790/sys_fs_media_manager.o

.text.lock_bin%226
                0x000986bc       0x20
 .text.lock_bin
                0x000986bc       0x20 c:/program files/microchip/xc32/v4.00/bin/bin/../../lib/gcc/pic32c/8.3.1/../../../../pic32c/lib/thumb/v7e-m+fp/hard\libg-musl.a(malloc.o)

.text.sum_sfn%227
                0x000986dc       0x1e
 .text.sum_sfn  0x000986dc       0x1e build/sam_e54_xpro/debug/_ext/1171329604/ff.o

.text.FATFS_close%228
                0x000986fa       0x1e
 .text.FATFS_close
                0x000986fa       0x1e build/sam_e54_xpro/debug/_ext/743848790/sys_fs_fat_interface.o
                0x000986fa                FATFS_close

.text.FATFS_closedir%229
                0x00098718       0x1e
 .text.FATFS_closedir
                0x00098718       0x1e build/sam_e54_xpro/debug/_ext/743848790/sys_fs_fat_interface.o
                0x00098718                FATFS_closedir

.text.DRV_MEMORY_AsyncEraseWrite%230
                0x00098736       0x1c
 .text.DRV_MEMORY_AsyncEraseWrite
                0x00098736       0x1c build/sam_e54_xpro/debug/_ext/1062319119/drv_memory.o
                0x00098736                DRV_MEMORY_AsyncEraseWrite

.text.NVMCTRL_BlockErase%231
                0x00098754       0x1c
 .text.NVMCTRL_BlockErase
                0x00098754       0x1c build/sam_e54_xpro/debug/_ext/1986180951/plib_nvmctrl.o
                0x00098754                NVMCTRL_BlockErase

.text._mon_putc%232
                0x00098770       0x1c
 .text._mon_putc
                0x00098770       0x1c build/sam_e54_xpro/debug/_ext/498645085/xc32_monitor.o
                0x00098770                _mon_putc

.text.SYS_FS_MEDIA_MANAGER_GetMediaGeometry%233
                0x0009878c       0x1c
 .text.SYS_FS_MEDIA_MANAGER_GetMediaGeometry
                0x0009878c       0x1c build/sam_e54_xpro/debug/_ext/743848790/sys_fs_media_manager.o
                0x0009878c                SYS_FS_MEDIA_MANAGER_GetMediaGeometry

.text.APP_Initialize%234
                0x000987a8       0x1c
 .text.APP_Initialize
                0x000987a8       0x1c build/sam_e54_xpro/debug/_ext/1360937237/app.o
                0x000987a8                APP_Initialize

.text.vfprintf%235
                0x000987c4       0x1c
 .text.vfprintf
                0x000987c4       0x1c c:/program files/microchip/xc32/v4.00/bin/bin/../../lib/gcc/pic32c/8.3.1/../../../../pic32c/lib/thumb/v7e-m+fp/hard\libg-musl.a(vfprintf.o)
                0x000987c4                vfprintf

.rodata%236     0x000987e0       0x1c
 .rodata        0x000987e0       0x1c c:/program files/microchip/xc32/v4.00/bin/bin/../../lib/gcc/pic32c/8.3.1/../../../../pic32c/lib/thumb/v7e-m+fp/hard\libg-musl.a(__printf_core.o)

.text.DRV_MEMORY_AsyncRead%237
                0x000987fc       0x1a
 .text.DRV_MEMORY_AsyncRead
                0x000987fc       0x1a build/sam_e54_xpro/debug/_ext/1062319119/drv_memory.o
                0x000987fc                DRV_MEMORY_AsyncRead

.text.DRV_MEMORY_AsyncErase%238
                0x00098816       0x1a
 .text.DRV_MEMORY_AsyncErase
                0x00098816       0x1a build/sam_e54_xpro/debug/_ext/1062319119/drv_memory.o
                0x00098816                DRV_MEMORY_AsyncErase

.text.st_clust%239
                0x00098830       0x1a
 .text.st_clust
                0x00098830       0x1a build/sam_e54_xpro/debug/_ext/1171329604/ff.o

.text.FATFS_readdir%240
                0x0009884a       0x1a
 .text.FATFS_readdir
                0x0009884a       0x1a build/sam_e54_xpro/debug/_ext/743848790/sys_fs_fat_interface.o
                0x0009884a                FATFS_readdir

.text._SYS_FS_MEDIA_MANAGER_HandleMediaDetach%241
                0x00098864       0x18
 .text._SYS_FS_MEDIA_MANAGER_HandleMediaDetach
                0x00098864       0x18 build/sam_e54_xpro/debug/_ext/743848790/sys_fs_media_manager.o

.text.FATFS_stat%242
                0x0009887c       0x18
 .text.FATFS_stat
                0x0009887c       0x18 build/sam_e54_xpro/debug/_ext/743848790/sys_fs_fat_interface.o
                0x0009887c                FATFS_stat

.text.SYS_Tasks%243
                0x00098894       0x18
 .text.SYS_Tasks
                0x00098894       0x18 build/sam_e54_xpro/debug/_ext/68098787/tasks.o
                0x00098894                SYS_Tasks

.text.strcmp%244
                0x000988ac       0x18
 .text.strcmp   0x000988ac       0x18 c:/program files/microchip/xc32/v4.00/bin/bin/../../lib/gcc/pic32c/8.3.1/../../../../pic32c/lib/thumb/v7e-m+fp/hard\libg-musl.a(strcmp.o)
                0x000988ac                strcmp

.text.__towrite%245
                0x000988c4       0x18
 .text.__towrite
                0x000988c4       0x18 c:/program files/microchip/xc32/v4.00/bin/bin/../../lib/gcc/pic32c/8.3.1/../../../../pic32c/lib/thumb/v7e-m+fp/hard\libg-musl.a(__towrite.o)
                0x000988c4                __towrite

.text.__syscall_ret%246
                0x000988dc       0x18
 .text.__syscall_ret
                0x000988dc       0x18 c:/program files/microchip/xc32/v4.00/bin/bin/../../lib/gcc/pic32c/8.3.1/../../../../pic32c/lib/thumb/v7e-m+fp/hard\libg-musl.a(syscall_ret.o)
                0x000988dc                __syscall_ret

.text.__fwrite%247
                0x000988f4       0x18
 .text.__fwrite
                0x000988f4       0x18 c:/program files/microchip/xc32/v4.00/bin/bin/../../lib/gcc/pic32c/8.3.1/../../../../pic32c/lib/thumb/v7e-m+fp/hard\libg-musl.a(__fwrite.o)
                0x000988f4                __fwrite
                0x000988f4                __fwrite_needed

.text.ld_dword%248
                0x0009890c       0x16
 .text.ld_dword
                0x0009890c       0x16 build/sam_e54_xpro/debug/_ext/1171329604/ff.o

.text.clst2sect%249
                0x00098922       0x16
 .text.clst2sect
                0x00098922       0x16 build/sam_e54_xpro/debug/_ext/1171329604/ff.o

.text.memcpy%250
                0x00098938       0x16
 .text.memcpy   0x00098938       0x16 c:/program files/microchip/xc32/v4.00/bin/bin/../../lib/gcc/pic32c/8.3.1/../../../../pic32c/lib/thumb/v7e-m+fp/hard\libg-musl.a(memcpy.o)
                0x00098938                memcpy

.text.__expand_heap%251
                0x0009894e       0x16
 .text.__expand_heap
                0x0009894e       0x16 c:/program files/microchip/xc32/v4.00/bin/bin/../../lib/gcc/pic32c/8.3.1/../../../../pic32c/lib/thumb/v7e-m+fp/hard\libg-musl.a(expand_heap.o)
                0x0009894e                __expand_heap

.text.DRV_MEMORY_RegisterWithSysFs%252
                0x00098964       0x14
 .text.DRV_MEMORY_RegisterWithSysFs
                0x00098964       0x14 build/sam_e54_xpro/debug/_ext/1062319119/drv_memory_file_system.o
                0x00098964                DRV_MEMORY_RegisterWithSysFs

.text.NVMCTRL_IsBusy%253
                0x00098978       0x14
 .text.NVMCTRL_IsBusy
                0x00098978       0x14 build/sam_e54_xpro/debug/_ext/1986180951/plib_nvmctrl.o
                0x00098978                NVMCTRL_IsBusy

.text.mem_cpy%254
                0x0009898c       0x14
 .text.mem_cpy  0x0009898c       0x14 build/sam_e54_xpro/debug/_ext/1171329604/ff.o

.rodata.badchr.9015%255
                0x000989a0       0x14
 .rodata.badchr.9015
                0x000989a0       0x14 build/sam_e54_xpro/debug/_ext/1171329604/ff.o

.text.__init_stdout%256
                0x000989b4       0x14
 .text.__init_stdout
                0x000989b4       0x14 c:/program files/microchip/xc32/v4.00/bin/bin/../../lib/gcc/pic32c/8.3.1/../../../../pic32c/lib/thumb/v7e-m+fp/hard\libg-musl.a(stdout.o)
                0x000989b4                __init_stdout

.text.DRV_MEMORY_TransferHandlerSet%257
                0x000989c8       0x12
 .text.DRV_MEMORY_TransferHandlerSet
                0x000989c8       0x12 build/sam_e54_xpro/debug/_ext/1062319119/drv_memory.o
                0x000989c8                DRV_MEMORY_TransferHandlerSet

.text.stpcpy%258
                0x000989da       0x12
 .text.stpcpy   0x000989da       0x12 c:/program files/microchip/xc32/v4.00/bin/bin/../../lib/gcc/pic32c/8.3.1/../../../../pic32c/lib/thumb/v7e-m+fp/hard\libg-musl.a(stpcpy.o)
                0x000989da                __stpcpy
                0x000989da                stpcpy

.text.BSP_Initialize%259
                0x000989ec       0x10
 .text.BSP_Initialize
                0x000989ec       0x10 build/sam_e54_xpro/debug/_ext/544748269/bsp.o
                0x000989ec                BSP_Initialize

.rodata.gMemoryXferFuncPtr%260
                0x000989fc       0x10
 .rodata.gMemoryXferFuncPtr
                0x000989fc       0x10 build/sam_e54_xpro/debug/_ext/1062319119/drv_memory.o

.text.NVMCTRL_Initialize%261
                0x00098a0c       0x10
 .text.NVMCTRL_Initialize
                0x00098a0c       0x10 build/sam_e54_xpro/debug/_ext/1986180951/plib_nvmctrl.o
                0x00098a0c                NVMCTRL_Initialize

.text.NVMCTRL_Read%262
                0x00098a1c       0x10
 .text.NVMCTRL_Read
                0x00098a1c       0x10 build/sam_e54_xpro/debug/_ext/1986180951/plib_nvmctrl.o
                0x00098a1c                NVMCTRL_Read

.text.st_dword%263
                0x00098a2c       0x10
 .text.st_dword
                0x00098a2c       0x10 build/sam_e54_xpro/debug/_ext/1171329604/ff.o

.rodata.LfnOfs%264
                0x00098a3c       0x10
 .rodata.LfnOfs
                0x00098a3c       0x10 build/sam_e54_xpro/debug/_ext/1171329604/ff.o

.rodata.cst.9052%265
                0x00098a4c       0x10
 .rodata.cst.9052
                0x00098a4c       0x10 build/sam_e54_xpro/debug/_ext/1171329604/ff.o

.rodata.cst32.9053%266
                0x00098a5c       0x10
 .rodata.cst32.9053
                0x00098a5c       0x10 build/sam_e54_xpro/debug/_ext/1171329604/ff.o

.rodata.defopt.9054%267
                0x00098a6c       0x10
 .rodata.defopt.9054
                0x00098a6c       0x10 build/sam_e54_xpro/debug/_ext/1171329604/ff.o

.text.disk_initialize%268
                0x00098a7c       0x10
 .text.disk_initialize
                0x00098a7c       0x10 build/sam_e54_xpro/debug/_ext/656274803/diskio.o
                0x00098a7c                disk_initialize

.rodata.writeData%269
                0x00098a8c       0x10
 .rodata.writeData
                0x00098a8c       0x10 build/sam_e54_xpro/debug/_ext/1360937237/app.o
                0x00098a8c                writeData

.text.setbuf%270
                0x00098a9c       0x10
 .text.setbuf   0x00098a9c       0x10 c:/program files/microchip/xc32/v4.00/bin/bin/../../lib/gcc/pic32c/8.3.1/../../../../pic32c/lib/thumb/v7e-m+fp/hard\libg-musl.a(setbuf.o)
                0x00098a9c                setbuf

.text.memset%271
                0x00098aac       0x10
 .text.memset   0x00098aac       0x10 c:/program files/microchip/xc32/v4.00/bin/bin/../../lib/gcc/pic32c/8.3.1/../../../../pic32c/lib/thumb/v7e-m+fp/hard\libg-musl.a(memset.o)
                0x00098aac                memset

.text.strlen%272
                0x00098abc       0x10
 .text.strlen   0x00098abc       0x10 c:/program files/microchip/xc32/v4.00/bin/bin/../../lib/gcc/pic32c/8.3.1/../../../../pic32c/lib/thumb/v7e-m+fp/hard\libg-musl.a(strlen.o)
                0x00098abc                strlen

.text.__init_stdio%273
                0x00098acc       0x10
 .text.__init_stdio
                0x00098acc       0x10 c:/program files/microchip/xc32/v4.00/bin/bin/../../lib/gcc/pic32c/8.3.1/../../../../pic32c/lib/thumb/v7e-m+fp/hard\libg-musl.a(__init_stdio.o)
                0x00098acc                __init_stdio_needed
                0x00098acc                __init_stdio

.rodata%274     0x00098adc       0x20
 .rodata        0x00098adc       0x10 c:/program files/microchip/xc32/v4.00/bin/bin/../../lib/gcc/pic32c/8.3.1/../../../../pic32c/lib/thumb/v7e-m+fp/hard\libg-musl.a(__fmt_a.o)
 .rodata        0x00098aec       0x10 c:/program files/microchip/xc32/v4.00/bin/bin/../../lib/gcc/pic32c/8.3.1/../../../../pic32c/lib/thumb/v7e-m+fp/hard\libg-musl.a(__fmt_fp.o)

.text.DRV_NVMCTRL_TransferStatusGet%276
                0x00098afc        0xe
 .text.DRV_NVMCTRL_TransferStatusGet
                0x00098afc        0xe build/sam_e54_xpro/debug/_ext/1062319119/drv_memory_nvmctrl.o
                0x00098afc                DRV_NVMCTRL_TransferStatusGet

.text.DRV_NVMCTRL_Read%277
                0x00098b0a        0xe
 .text.DRV_NVMCTRL_Read
                0x00098b0a        0xe build/sam_e54_xpro/debug/_ext/1062319119/drv_memory_nvmctrl.o
                0x00098b0a                DRV_NVMCTRL_Read

.text.DRV_MEMORY_IsAttached%278
                0x00098b18        0xe
 .text.DRV_MEMORY_IsAttached
                0x00098b18        0xe build/sam_e54_xpro/debug/_ext/1062319119/drv_memory.o
                0x00098b18                DRV_MEMORY_IsAttached

.text.FATFS_eof%279
                0x00098b26        0xe
 .text.FATFS_eof
                0x00098b26        0xe build/sam_e54_xpro/debug/_ext/743848790/sys_fs_fat_interface.o
                0x00098b26                FATFS_eof

.text.main%280  0x00098b34        0xe
 .text.main     0x00098b34        0xe build/sam_e54_xpro/debug/_ext/1360937237/main.o
                0x00098b34                main

.text.tolower%281
                0x00098b42        0xe
 .text.tolower  0x00098b42        0xe c:/program files/microchip/xc32/v4.00/bin/bin/../../lib/gcc/pic32c/8.3.1/../../../../pic32c/lib/thumb/v7e-m+fp/hard\libg-musl.a(tolower.o)
                0x00098b42                tolower

.text.toupper%282
                0x00098b50        0xe
 .text.toupper  0x00098b50        0xe c:/program files/microchip/xc32/v4.00/bin/bin/../../lib/gcc/pic32c/8.3.1/../../../../pic32c/lib/thumb/v7e-m+fp/hard\libg-musl.a(toupper.o)
                0x00098b50                toupper

.text.DRV_NVMCTRL_PageWrite%283
                0x00098b5e        0xc
 .text.DRV_NVMCTRL_PageWrite
                0x00098b5e        0xc build/sam_e54_xpro/debug/_ext/1062319119/drv_memory_nvmctrl.o
                0x00098b5e                DRV_NVMCTRL_PageWrite

.text.mem_set%284
                0x00098b6a        0xc
 .text.mem_set  0x00098b6a        0xc build/sam_e54_xpro/debug/_ext/1171329604/ff.o

.text.SYS_FS_MEDIA_MANAGER_RegisterTransferHandler%285
                0x00098b78        0xc
 .text.SYS_FS_MEDIA_MANAGER_RegisterTransferHandler
                0x00098b78        0xc build/sam_e54_xpro/debug/_ext/743848790/sys_fs_media_manager.o
                0x00098b78                SYS_FS_MEDIA_MANAGER_RegisterTransferHandler

.text.FATFS_error%286
                0x00098b84        0xc
 .text.FATFS_error
                0x00098b84        0xc build/sam_e54_xpro/debug/_ext/743848790/sys_fs_fat_interface.o
                0x00098b84                FATFS_error

.text.strcpy%287
                0x00098b90        0xc
 .text.strcpy   0x00098b90        0xc c:/program files/microchip/xc32/v4.00/bin/bin/../../lib/gcc/pic32c/8.3.1/../../../../pic32c/lib/thumb/v7e-m+fp/hard\libg-musl.a(strcpy.o)
                0x00098b90                strcpy

.text.DRV_NVMCTRL_SectorErase%288
                0x00098b9c        0xa
 .text.DRV_NVMCTRL_SectorErase
                0x00098b9c        0xa build/sam_e54_xpro/debug/_ext/1062319119/drv_memory_nvmctrl.o
                0x00098b9c                DRV_NVMCTRL_SectorErase

.text.FATFS_read%289
                0x00098ba6        0xa
 .text.FATFS_read
                0x00098ba6        0xa build/sam_e54_xpro/debug/_ext/743848790/sys_fs_fat_interface.o
                0x00098ba6                FATFS_read

.text.FATFS_lseek%290
                0x00098bb0        0xa
 .text.FATFS_lseek
                0x00098bb0        0xa build/sam_e54_xpro/debug/_ext/743848790/sys_fs_fat_interface.o
                0x00098bb0                FATFS_lseek

.text.FATFS_gets%291
                0x00098bba        0xa
 .text.FATFS_gets
                0x00098bba        0xa build/sam_e54_xpro/debug/_ext/743848790/sys_fs_fat_interface.o
                0x00098bba                FATFS_gets

.text.FATFS_write%292
                0x00098bc4        0xa
 .text.FATFS_write
                0x00098bc4        0xa build/sam_e54_xpro/debug/_ext/743848790/sys_fs_fat_interface.o
                0x00098bc4                FATFS_write

.text.FATFS_truncate%293
                0x00098bce        0xa
 .text.FATFS_truncate
                0x00098bce        0xa build/sam_e54_xpro/debug/_ext/743848790/sys_fs_fat_interface.o
                0x00098bce                FATFS_truncate

.text.FATFS_sync%294
                0x00098bd8        0xa
 .text.FATFS_sync
                0x00098bd8        0xa build/sam_e54_xpro/debug/_ext/743848790/sys_fs_fat_interface.o
                0x00098bd8                FATFS_sync

.text.FATFS_putc%295
                0x00098be2        0xa
 .text.FATFS_putc
                0x00098be2        0xa build/sam_e54_xpro/debug/_ext/743848790/sys_fs_fat_interface.o
                0x00098be2                FATFS_putc

.text.FATFS_puts%296
                0x00098bec        0xa
 .text.FATFS_puts
                0x00098bec        0xa build/sam_e54_xpro/debug/_ext/743848790/sys_fs_fat_interface.o
                0x00098bec                FATFS_puts

.text.FATFS_printf%297
                0x00098bf6        0xa
 .text.FATFS_printf
                0x00098bf6        0xa build/sam_e54_xpro/debug/_ext/743848790/sys_fs_fat_interface.o
                0x00098bf6                FATFS_printf

.text.DRV_MEMORY_EventHandler%298
                0x00098c00        0x8
 .text.DRV_MEMORY_EventHandler
                0x00098c00        0x8 build/sam_e54_xpro/debug/_ext/1062319119/drv_memory.o

.text.SYS_FS_Tasks%299
                0x00098c08        0x8
 .text.SYS_FS_Tasks
                0x00098c08        0x8 build/sam_e54_xpro/debug/_ext/743848790/sys_fs.o
                0x00098c08                SYS_FS_Tasks

.rodata%300     0x00098c10        0x8
 .rodata        0x00098c10        0x8 build/sam_e54_xpro/debug/_ext/743848790/sys_fs.o

.rodata.gPartitionTypeOffset%301
                0x00098c18        0x8
 .rodata.gPartitionTypeOffset
                0x00098c18        0x8 build/sam_e54_xpro/debug/_ext/743848790/sys_fs_media_manager.o
                0x00098c18                gPartitionTypeOffset

.text.FATFS_getlabel%302
                0x00098c20        0x8
 .text.FATFS_getlabel
                0x00098c20        0x8 build/sam_e54_xpro/debug/_ext/743848790/sys_fs_fat_interface.o
                0x00098c20                FATFS_getlabel

.text.FATFS_getcwd%303
                0x00098c28        0x8
 .text.FATFS_getcwd
                0x00098c28        0x8 build/sam_e54_xpro/debug/_ext/743848790/sys_fs_fat_interface.o
                0x00098c28                FATFS_getcwd

.text.FATFS_chdir%304
                0x00098c30        0x8
 .text.FATFS_chdir
                0x00098c30        0x8 build/sam_e54_xpro/debug/_ext/743848790/sys_fs_fat_interface.o
                0x00098c30                FATFS_chdir

.text.FATFS_mkdir%305
                0x00098c38        0x8
 .text.FATFS_mkdir
                0x00098c38        0x8 build/sam_e54_xpro/debug/_ext/743848790/sys_fs_fat_interface.o
                0x00098c38                FATFS_mkdir

.text.FATFS_unlink%306
                0x00098c40        0x8
 .text.FATFS_unlink
                0x00098c40        0x8 build/sam_e54_xpro/debug/_ext/743848790/sys_fs_fat_interface.o
                0x00098c40                FATFS_unlink

.text.FATFS_setlabel%307
                0x00098c48        0x8
 .text.FATFS_setlabel
                0x00098c48        0x8 build/sam_e54_xpro/debug/_ext/743848790/sys_fs_fat_interface.o
                0x00098c48                FATFS_setlabel

.text.FATFS_chmod%308
                0x00098c50        0x8
 .text.FATFS_chmod
                0x00098c50        0x8 build/sam_e54_xpro/debug/_ext/743848790/sys_fs_fat_interface.o
                0x00098c50                FATFS_chmod

.text.FATFS_utime%309
                0x00098c58        0x8
 .text.FATFS_utime
                0x00098c58        0x8 build/sam_e54_xpro/debug/_ext/743848790/sys_fs_fat_interface.o
                0x00098c58                FATFS_utime

.text.FATFS_rename%310
                0x00098c60        0x8
 .text.FATFS_rename
                0x00098c60        0x8 build/sam_e54_xpro/debug/_ext/743848790/sys_fs_fat_interface.o
                0x00098c60                FATFS_rename

.text.FATFS_fdisk%311
                0x00098c68        0x8
 .text.FATFS_fdisk
                0x00098c68        0x8 build/sam_e54_xpro/debug/_ext/743848790/sys_fs_fat_interface.o
                0x00098c68                FATFS_fdisk

.rodata.sysFSInit%312
                0x00098c70        0x8
 .rodata.sysFSInit
                0x00098c70        0x8 build/sam_e54_xpro/debug/_ext/68098787/initialization.o
                0x00098c70                sysFSInit

.text.__get_stdout%313
                0x00098c78        0x8
 .text.__get_stdout
                0x00098c78        0x8 c:/program files/microchip/xc32/v4.00/bin/bin/../../lib/gcc/pic32c/8.3.1/../../../../pic32c/lib/thumb/v7e-m+fp/hard\libg-musl.a(__stdout.o)
                0x00098c78                __get_stdout
                0x00098c78                __init_stdout_needed

.text.__read%314
                0x00098c80        0x8
 .text.__read   0x00098c80        0x8 c:/program files/microchip/xc32/v4.00/bin/bin/../../lib/gcc/pic32c/8.3.1/../../../../pic32c/lib/thumb/v7e-m+fp/hard\libg-musl.a(read.o)
                0x00098c80                read
                0x00098c80                __read

.text.__aeabi_dsub%315
                0x00098c88        0x8
 .text.__aeabi_dsub
                0x00098c88        0x8 c:/program files/microchip/xc32/v4.00/bin/bin/../../lib/gcc/pic32c/8.3.1/../../../../pic32c/lib/thumb/v7e-m+fp/hard\libm-emfloat.a(floatasmops_arm.o)
                0x00098c88                __aeabi_dsub

.text.close%316
                0x00098c90        0x8
 .text.close    0x00098c90        0x8 c:/program files/microchip/xc32/v4.00/bin/bin/../../lib/gcc/pic32c/8.3.1/../../../../pic32c/lib/thumb/v7e-m+fp/hard\libpic32c.a(close.o)
                0x00098c90                close

.rodata%317     0x00098c98        0x7
 .rodata        0x00098c98        0x7 c:/program files/microchip/xc32/v4.00/bin/bin/../../lib/gcc/pic32c/8.3.1/../../../../pic32c/lib/thumb/v7e-m+fp/hard\libg-musl.a(__fmt_s.o)

.text.__dummy%318
                0x00098ca0        0x6
 .text.__dummy  0x00098ca0        0x6 c:/program files/microchip/xc32/v4.00/bin/bin/../../lib/gcc/pic32c/8.3.1/../../../../pic32c/lib/thumb/v7e-m+fp/hard\libg-musl.a(stdin.o)
                0x00098ca0                __stdio_seek_rw

.text.__fwrite_min%319
                0x00098ca6        0x6
 .text.__fwrite_min
                0x00098ca6        0x6 c:/program files/microchip/xc32/v4.00/bin/bin/../../lib/gcc/pic32c/8.3.1/../../../../pic32c/lib/thumb/v7e-m+fp/hard\libg-musl.a(__out.o)
                0x00098ca6                __stdio_write_unbuffered
                0x00098ca6                __stdio_write

.text.DRV_NVMCTRL_Status%320
                0x00098cac        0x4
 .text.DRV_NVMCTRL_Status
                0x00098cac        0x4 build/sam_e54_xpro/debug/_ext/1062319119/drv_memory_nvmctrl.o
                0x00098cac                DRV_NVMCTRL_Status

.text.disk_status%321
                0x00098cb0        0x4
 .text.disk_status
                0x00098cb0        0x4 build/sam_e54_xpro/debug/_ext/656274803/diskio.o
                0x00098cb0                disk_status

.text.FATFS_tell%322
                0x00098cb4        0x4
 .text.FATFS_tell
                0x00098cb4        0x4 build/sam_e54_xpro/debug/_ext/743848790/sys_fs_fat_interface.o
                0x00098cb4                FATFS_tell

.text.FATFS_size%323
                0x00098cb8        0x4
 .text.FATFS_size
                0x00098cb8        0x4 build/sam_e54_xpro/debug/_ext/743848790/sys_fs_fat_interface.o
                0x00098cb8                FATFS_size

.text.Dummy_Handler%324
                0x00098cbc        0x4
 .text.Dummy_Handler
                0x00098cbc        0x4 build/sam_e54_xpro/debug/_ext/68098787/interrupts.o
                0x00098cbc                EIC_EXTINT_9_Handler
                0x00098cbc                TCC0_MC5_Handler
                0x00098cbc                SVCall_Handler
                0x00098cbc                SERCOM0_2_Handler
                0x00098cbc                USB_SOF_HSOF_Handler
                0x00098cbc                TCC4_OTHER_Handler
                0x00098cbc                TCC2_MC2_Handler
                0x00098cbc                EVSYS_0_Handler
                0x00098cbc                TRNG_Handler
                0x00098cbc                TC2_Handler
                0x00098cbc                USB_TRCPT0_Handler
                0x00098cbc                DAC_OTHER_Handler
                0x00098cbc                AC_Handler
                0x00098cbc                DAC_EMPTY_0_Handler
                0x00098cbc                DMAC_OTHER_Handler
                0x00098cbc                EIC_EXTINT_5_Handler
                0x00098cbc                SERCOM3_1_Handler
                0x00098cbc                SysTick_Handler
                0x00098cbc                SERCOM4_OTHER_Handler
                0x00098cbc                SERCOM3_2_Handler
                0x00098cbc                EIC_EXTINT_6_Handler
                0x00098cbc                PendSV_Handler
                0x00098cbc                TC7_Handler
                0x00098cbc                TCC4_MC0_Handler
                0x00098cbc                EVSYS_3_Handler
                0x00098cbc                QSPI_Handler
                0x00098cbc                TCC2_MC0_Handler
                0x00098cbc                PDEC_OTHER_Handler
                0x00098cbc                TCC3_MC0_Handler
                0x00098cbc                PDEC_MC1_Handler
                0x00098cbc                TCC2_MC1_Handler
                0x00098cbc                OSCCTRL_XOSC1_Handler
                0x00098cbc                PDEC_MC0_Handler
                0x00098cbc                EIC_EXTINT_4_Handler
                0x00098cbc                EIC_EXTINT_7_Handler
                0x00098cbc                SERCOM0_OTHER_Handler
                0x00098cbc                EVSYS_OTHER_Handler
                0x00098cbc                SERCOM0_0_Handler
                0x00098cbc                RTC_Handler
                0x00098cbc                SERCOM4_0_Handler
                0x00098cbc                TCC1_MC0_Handler
                0x00098cbc                SERCOM1_OTHER_Handler
                0x00098cbc                TCC2_OTHER_Handler
                0x00098cbc                EIC_EXTINT_11_Handler
                0x00098cbc                SUPC_BODDET_Handler
                0x00098cbc                EIC_EXTINT_14_Handler
                0x00098cbc                OSC32KCTRL_Handler
                0x00098cbc                SERCOM6_2_Handler
                0x00098cbc                EVSYS_1_Handler
                0x00098cbc                TC6_Handler
                0x00098cbc                TCC4_MC1_Handler
                0x00098cbc                DMAC_0_Handler
                0x00098cbc                SUPC_OTHER_Handler
                0x00098cbc                WDT_Handler
                0x00098cbc                CAN0_Handler
                0x00098cbc                EIC_EXTINT_15_Handler
                0x00098cbc                SERCOM6_0_Handler
                0x00098cbc                EIC_EXTINT_1_Handler
                0x00098cbc                TCC3_MC1_Handler
                0x00098cbc                SERCOM5_0_Handler
                0x00098cbc                TC4_Handler
                0x00098cbc                TC1_Handler
                0x00098cbc                TCC1_MC1_Handler
                0x00098cbc                EIC_EXTINT_0_Handler
                0x00098cbc                TCC1_OTHER_Handler
                0x00098cbc                PAC_Handler
                0x00098cbc                SERCOM4_1_Handler
                0x00098cbc                TC3_Handler
                0x00098cbc                Dummy_Handler
                0x00098cbc                DAC_RESRDY_0_Handler
                0x00098cbc                SERCOM5_1_Handler
                0x00098cbc                DMAC_2_Handler
                0x00098cbc                TCC0_MC4_Handler
                0x00098cbc                USB_TRCPT1_Handler
                0x00098cbc                SERCOM0_1_Handler
                0x00098cbc                TCC0_MC3_Handler
                0x00098cbc                EIC_EXTINT_12_Handler
                0x00098cbc                OSCCTRL_DPLL0_Handler
                0x00098cbc                SERCOM6_OTHER_Handler
                0x00098cbc                SERCOM7_1_Handler
                0x00098cbc                SERCOM5_OTHER_Handler
                0x00098cbc                PM_Handler
                0x00098cbc                OSCCTRL_DFLL_Handler
                0x00098cbc                SERCOM7_0_Handler
                0x00098cbc                DAC_RESRDY_1_Handler
                0x00098cbc                DMAC_1_Handler
                0x00098cbc                USB_OTHER_Handler
                0x00098cbc                GMAC_Handler
                0x00098cbc                SDHC1_Handler
                0x00098cbc                SERCOM7_2_Handler
                0x00098cbc                CAN1_Handler
                0x00098cbc                TCC0_OTHER_Handler
                0x00098cbc                EIC_EXTINT_10_Handler
                0x00098cbc                TCC1_MC3_Handler
                0x00098cbc                OSCCTRL_XOSC0_Handler
                0x00098cbc                SERCOM6_1_Handler
                0x00098cbc                TCC0_MC0_Handler
                0x00098cbc                EIC_EXTINT_2_Handler
                0x00098cbc                SDHC0_Handler
                0x00098cbc                SERCOM1_1_Handler
                0x00098cbc                I2S_Handler
                0x00098cbc                PCC_Handler
                0x00098cbc                TCC3_OTHER_Handler
                0x00098cbc                EIC_EXTINT_13_Handler
                0x00098cbc                SERCOM1_0_Handler
                0x00098cbc                PUKCC_Handler
                0x00098cbc                SERCOM2_1_Handler
                0x00098cbc                SERCOM1_2_Handler
                0x00098cbc                SERCOM3_0_Handler
                0x00098cbc                SERCOM4_2_Handler
                0x00098cbc                TCC1_MC2_Handler
                0x00098cbc                ADC1_RESRDY_Handler
                0x00098cbc                NVMCTRL_1_Handler
                0x00098cbc                SERCOM5_2_Handler
                0x00098cbc                SERCOM2_2_Handler
                0x00098cbc                DAC_EMPTY_1_Handler
                0x00098cbc                ADC1_OTHER_Handler
                0x00098cbc                OSCCTRL_DPLL1_Handler
                0x00098cbc                EIC_EXTINT_3_Handler
                0x00098cbc                SERCOM3_OTHER_Handler
                0x00098cbc                EIC_EXTINT_8_Handler
                0x00098cbc                NVMCTRL_0_Handler
                0x00098cbc                ADC0_RESRDY_Handler
                0x00098cbc                ADC0_OTHER_Handler
                0x00098cbc                MCLK_Handler
                0x00098cbc                SERCOM7_OTHER_Handler
                0x00098cbc                EVSYS_2_Handler
                0x00098cbc                SERCOM2_OTHER_Handler
                0x00098cbc                FREQM_Handler
                0x00098cbc                TC0_Handler
                0x00098cbc                TCC0_MC1_Handler
                0x00098cbc                DMAC_3_Handler
                0x00098cbc                RAMECC_Handler
                0x00098cbc                TC5_Handler
                0x00098cbc                SERCOM2_0_Handler
                0x00098cbc                AES_Handler
                0x00098cbc                ICM_Handler
                0x00098cbc                TCC0_MC2_Handler

.text.NonMaskableInt_Handler%325
                0x00098cc0        0x4
 .text.NonMaskableInt_Handler
                0x00098cc0        0x4 build/sam_e54_xpro/debug/_ext/68098787/exceptions.o
                0x00098cc0                NonMaskableInt_Handler

.text.HardFault_Handler%326
                0x00098cc4        0x4
 .text.HardFault_Handler
                0x00098cc4        0x4 build/sam_e54_xpro/debug/_ext/68098787/exceptions.o
                0x00098cc4                HardFault_Handler

.text.DebugMonitor_Handler%327
                0x00098cc8        0x4
 .text.DebugMonitor_Handler
                0x00098cc8        0x4 build/sam_e54_xpro/debug/_ext/68098787/exceptions.o
                0x00098cc8                DebugMonitor_Handler

.text.MemoryManagement_Handler%328
                0x00098ccc        0x4
 .text.MemoryManagement_Handler
                0x00098ccc        0x4 build/sam_e54_xpro/debug/_ext/68098787/exceptions.o
                0x00098ccc                MemoryManagement_Handler

.text.BusFault_Handler%329
                0x00098cd0        0x4
 .text.BusFault_Handler
                0x00098cd0        0x4 build/sam_e54_xpro/debug/_ext/68098787/exceptions.o
                0x00098cd0                BusFault_Handler

.text.UsageFault_Handler%330
                0x00098cd4        0x4
 .text.UsageFault_Handler
                0x00098cd4        0x4 build/sam_e54_xpro/debug/_ext/68098787/exceptions.o
                0x00098cd4                UsageFault_Handler

.text%331       0x00098cd8        0x4
 .text          0x00098cd8        0x4 c:/program files/microchip/xc32/v4.00/bin/bin/../../lib/gcc/pic32c/8.3.1/thumb/v7e-m+fp/hard\libgcc.a(_dvmd_tls.o)
                0x00098cd8                __aeabi_idiv0
                0x00098cd8                __aeabi_ldiv0

.text.lseek%332
                0x00098cdc        0x4
 .text.lseek    0x00098cdc        0x4 c:/program files/microchip/xc32/v4.00/bin/bin/../../lib/gcc/pic32c/8.3.1/../../../../pic32c/lib/thumb/v7e-m+fp/hard\libpic32c.a(lseek.o)
                0x00098cdc                lseek

.text.DRV_NVMCTRL_Open%333
                0x0009373a        0x2
 .text.DRV_NVMCTRL_Open
                0x0009373a        0x2 build/sam_e54_xpro/debug/_ext/1062319119/drv_memory_nvmctrl.o
                0x0009373a                DRV_NVMCTRL_Open

.text.DRV_NVMCTRL_Close%334
                0x00094112        0x2
 .text.DRV_NVMCTRL_Close
                0x00094112        0x2 build/sam_e54_xpro/debug/_ext/1062319119/drv_memory_nvmctrl.o
                0x00094112                DRV_NVMCTRL_Close

.text.EVSYS_Initialize%335
                0x000953c2        0x2
 .text.EVSYS_Initialize
                0x000953c2        0x2 build/sam_e54_xpro/debug/_ext/2058899413/plib_evsys.o
                0x000953c2                EVSYS_Initialize

.text.Dummy_App_Func%336
                0x000958aa        0x2
 .text.Dummy_App_Func
                0x000958aa        0x2 build/sam_e54_xpro/debug/_ext/68098787/startup_xc32.o
                0x000958aa                _on_reset
                0x000958aa                _on_bootstrap
                0x000958aa                __xc32_on_reset
                0x000958aa                Dummy_App_Func
                0x000958aa                __xc32_on_bootstrap

.text.__dummy%337
                0x00095f12        0x2
 .text.__dummy  0x00095f12        0x2 c:/program files/microchip/xc32/v4.00/bin/bin/../../lib/gcc/pic32c/8.3.1/../../../../pic32c/lib/thumb/v7e-m+fp/hard\libg-musl.a(__libc_start_main.o)
                0x00095f12                __init_host

.text.__dummy%338
                0x0009646a        0x2
 .text.__dummy  0x0009646a        0x2 c:/program files/microchip/xc32/v4.00/bin/bin/../../lib/gcc/pic32c/8.3.1/../../../../pic32c/lib/thumb/v7e-m+fp/hard\libg-musl.a(__init_stdio.o)
                0x0009646a                __init_stdin
                0x0009646a                __init_stderr

.text.__dummy%339
                0x0009675a        0x2
 .text.__dummy  0x0009675a        0x2 c:/program files/microchip/xc32/v4.00/bin/bin/../../lib/gcc/pic32c/8.3.1/../../../../pic32c/lib/thumb/v7e-m+fp/hard\libg-musl.a(__stderr.o)
                0x0009675a                __stdio_seek
